
hardmod.elf:     file format elf32-avr

Sections:
Idx Name          Size      VMA       LMA       File off  Algn
  0 .data         000000be  00800100  00005e00  00005e94  2**0
                  CONTENTS, ALLOC, LOAD, DATA
  1 .text         00005e00  00000000  00000000  00000094  2**1
                  CONTENTS, ALLOC, LOAD, READONLY, CODE
  2 .bss          00000452  008001be  008001be  00005f52  2**0
                  ALLOC
  3 .stab         000006cc  00000000  00000000  00005f54  2**2
                  CONTENTS, READONLY, DEBUGGING
  4 .stabstr      00000054  00000000  00000000  00006620  2**0
                  CONTENTS, READONLY, DEBUGGING

Disassembly of section .text:

00000000 <__vectors>:
       0:	0c 94 cf 19 	jmp	0x339e	; 0x339e <__ctors_end>
       4:	0c 94 ec 19 	jmp	0x33d8	; 0x33d8 <__bad_interrupt>
       8:	0c 94 ec 19 	jmp	0x33d8	; 0x33d8 <__bad_interrupt>
       c:	0c 94 ec 19 	jmp	0x33d8	; 0x33d8 <__bad_interrupt>
      10:	0c 94 ec 19 	jmp	0x33d8	; 0x33d8 <__bad_interrupt>
      14:	0c 94 ec 19 	jmp	0x33d8	; 0x33d8 <__bad_interrupt>
      18:	0c 94 ec 19 	jmp	0x33d8	; 0x33d8 <__bad_interrupt>
      1c:	0c 94 ec 19 	jmp	0x33d8	; 0x33d8 <__bad_interrupt>
      20:	0c 94 ec 19 	jmp	0x33d8	; 0x33d8 <__bad_interrupt>
      24:	0c 94 ec 19 	jmp	0x33d8	; 0x33d8 <__bad_interrupt>
      28:	0c 94 ec 19 	jmp	0x33d8	; 0x33d8 <__bad_interrupt>
      2c:	0c 94 ec 19 	jmp	0x33d8	; 0x33d8 <__bad_interrupt>
      30:	0c 94 ec 19 	jmp	0x33d8	; 0x33d8 <__bad_interrupt>
      34:	0c 94 ec 19 	jmp	0x33d8	; 0x33d8 <__bad_interrupt>
      38:	0c 94 9b 2b 	jmp	0x5736	; 0x5736 <__vector_14>
      3c:	0c 94 ec 19 	jmp	0x33d8	; 0x33d8 <__bad_interrupt>
      40:	0c 94 ec 19 	jmp	0x33d8	; 0x33d8 <__bad_interrupt>
      44:	0c 94 ec 19 	jmp	0x33d8	; 0x33d8 <__bad_interrupt>
      48:	0c 94 ec 19 	jmp	0x33d8	; 0x33d8 <__bad_interrupt>
      4c:	0c 94 ec 19 	jmp	0x33d8	; 0x33d8 <__bad_interrupt>
      50:	0c 94 ec 19 	jmp	0x33d8	; 0x33d8 <__bad_interrupt>
      54:	0c 94 ec 19 	jmp	0x33d8	; 0x33d8 <__bad_interrupt>
      58:	0c 94 ec 19 	jmp	0x33d8	; 0x33d8 <__bad_interrupt>
      5c:	0c 94 ec 19 	jmp	0x33d8	; 0x33d8 <__bad_interrupt>
      60:	0c 94 ec 19 	jmp	0x33d8	; 0x33d8 <__bad_interrupt>
      64:	0c 94 ec 19 	jmp	0x33d8	; 0x33d8 <__bad_interrupt>

00000068 <songdata>:
      68:	41 56 52 4d 08 13 00 11 53 00 0e 64 00 08 64 2a     AVRM....S..d..d*
      78:	00 00 00 0e 00 00 40 00 00 0e 00 3e 00 00 40 06     ......@....>..@.
      88:	00 38 00 07 00 00 40 00 00 07 00 07 00 00 40 00     .8....@.......@.
      98:	00 07 00 ee 01 00 40 00 00 00 00 cd 00 00 40 00     ......@.......@.
      a8:	00 00 00 4d 01 00 40 00 00 00 00 07 00 00 40 00     ...M..@.......@.
      b8:	00 07 00 02 00 01 03 04 05 05 06 07 08 09 00 01     ................
      c8:	0a 0b 0c 0d 69 02 82 68 08 37 30 0a 00 39 04 a2     ....i..h.70..9..
      d8:	fd 00 00 fc 00 37 fc 00 00 fd 00 00 fd 80 02 68     .....7.........h
      e8:	06 37 30 0a 00 fd 80 02 fd 00 00 fc 00 37 fc 00     .70..........7..
      f8:	00 fd 00 00 fd 80 02 68 10 37 4c 0e 00 fd 80 02     .......h.7L.....
     108:	fd 80 02 fc 00 37 fc 00 00 fd 80 02 71 02 00 68     .....7......q..h
     118:	06 37 44 0c 00 39 04 00 6b 02 1e fc 00 37 44 0c     .7D..9..k....7D.
     128:	00 3b 04 20 75 02 00 60 08 47 30 0a 00 31 04 00     .;. u..`.G0..1..
     138:	73 02 1e fc 00 47 fc 00 00 fd 00 00 71 02 00 60     s....G......q..`
     148:	06 47 30 0a 00 fd 80 02 77 02 1e fc 00 47 fc 00     .G0.....w....G..
     158:	00 fd 80 02 68 c2 2f 60 10 47 4c 0e 00 31 04 00     ....h./`.GL..1..
     168:	fc c0 00 fc 00 47 fc 00 00 fd 00 00 fd 80 02 60     .....G.........`
     178:	06 47 44 0c 00 fd 80 02 fd 80 02 fc 00 47 fc 00     .GD..........G..
     188:	00 fd 80 02 61 02 00 74 08 47 30 0a 00 45 04 00     ....a..t.G0..E..
     198:	fd 00 00 fc 00 47 fc 00 00 fd 00 00 fd 80 02 74     .....G.........t
     1a8:	06 47 30 0a 00 fd 80 02 fd 80 02 fc 00 47 fc 00     .G0..........G..
     1b8:	00 fd 00 00 55 02 00 74 10 47 4c 0e 00 fd 80 02     ....U..t.GL.....
     1c8:	fd 00 00 fc 00 47 fc 00 00 fd 00 00 fd 80 02 74     .....G.........t
     1d8:	06 47 44 0c 00 fd 80 02 fd 80 02 fc 00 47 44 0c     .GD..........GD.
     1e8:	00 fd 80 02 4d 02 00 60 08 47 30 0a 00 31 04 00     ....M..`.G0..1..
     1f8:	fd 00 00 fc 00 47 fc 00 00 fd 00 00 fd 80 02 60     .....G.........`
     208:	06 47 30 0a 00 fd 80 02 fd 80 02 fc 00 47 fc 00     .G0..........G..
     218:	00 fd 00 00 60 c2 0f 60 10 47 4c 0e 00 fd 80 02     ....`..`.GL.....
     228:	fc c0 00 fc 00 47 fc 00 00 fd 00 00 fd 80 02 60     .....G.........`
     238:	06 47 30 0a 00 fd 80 02 fd 80 02 fc 00 47 4c 0e     .G0..........GL.
     248:	00 fd 80 02 69 02 00 58 08 47 30 0a 00 29 04 00     ....i..X.G0..)..
     258:	4f 02 1e fc 00 47 fc 00 00 fd 00 00 71 02 00 58     O....G......q..X
     268:	06 47 30 0a 00 fd 80 02 6b 02 1e fc 00 47 fc 00     .G0.....k....G..
     278:	00 fd 80 02 69 02 00 58 10 47 4c 0e 00 15 04 00     ....i..X.GL.....
     288:	73 02 1e fc 00 47 fc 00 00 2b 04 20 61 02 00 58     s....G...+. a..X
     298:	06 47 44 0c 00 29 04 00 6b 02 1e fc 00 47 44 0c     .GD..)..k....GD.
     2a8:	00 17 04 20 69 02 00 60 08 47 30 0a 00 31 04 00     ... i..`.G0..1..
     2b8:	fd 00 00 fc 00 47 fc 00 00 fd 00 00 fd 80 02 60     .....G.........`
     2c8:	06 47 30 0a 00 fd 80 02 fd 80 02 fc 00 47 fc 00     .G0..........G..
     2d8:	00 fd 80 02 60 c2 0f 60 10 47 4c 0e 00 1d 04 00     ....`..`.GL.....
     2e8:	fc c0 00 fc 00 47 fc 00 00 33 04 20 fd 80 02 60     .....G...3. ...`
     2f8:	06 47 44 0c 00 31 04 00 fd 80 02 fc 00 47 fc 00     .GD..1.......G..
     308:	00 1f 04 20 68 c2 04 68 08 37 30 0a 00 39 04 00     ... h..h.70..9..
     318:	fc c0 00 fc 00 37 fc 00 00 fd 00 00 fc c0 00 68     .....7.........h
     328:	06 37 30 0a 00 fd 80 02 fc c0 00 fc 00 37 fc 00     .70..........7..
     338:	00 fd 00 00 fd 00 00 68 10 37 4c 0e 00 fd 80 02     .......h.7L.....
     348:	fd 00 00 fc 00 37 fc 00 00 fd 80 02 fd 00 a2 68     .....7.........h
     358:	06 37 44 0c 00 25 04 00 fd 00 00 fc 00 37 44 0c     .7D..%.......7D.
     368:	00 3b 04 20 fd 80 02 68 08 37 30 0a 00 09 04 00     .;. ...h.70.....
     378:	fd 00 b3 fc 00 37 fc 00 00 fd 00 00 fd 80 02 68     .....7.........h
     388:	06 37 30 0a 00 fd 80 02 fd 80 02 fc 00 37 fc 00     .70..........7..
     398:	00 fd 80 02 69 02 00 60 10 47 4c 0e 00 39 04 00     ....i..`.GL..9..
     3a8:	6b 02 1e fc 00 47 fc 00 00 0b 04 20 71 02 00 60     k....G..... q..`
     3b8:	06 47 30 0a 00 31 04 00 6b 02 1e fc 00 47 4c 0e     .G0..1..k....GL.
     3c8:	00 3b 04 20 75 02 82 74 08 47 30 0a 00 45 04 a2     .;. u..t.G0..E..
     3d8:	fd 00 00 fc 00 47 fc 00 00 fd 00 00 fd 80 02 74     .....G.........t
     3e8:	06 47 30 0a 00 fd 80 02 fd 80 02 fc 00 47 fc 00     .G0..........G..
     3f8:	00 fd 00 00 85 02 00 74 10 47 4c 0e 00 fd 80 02     .......t.GL.....
     408:	fd 00 00 fc 00 47 fc 00 00 fd 80 02 fd 80 02 74     .....G.........t
     418:	06 47 44 0c 00 45 04 00 fd 80 02 fc 00 47 44 0c     .GD..E.......GD.
     428:	00 47 04 20 7d 02 00 60 08 47 30 0a 00 31 04 00     .G. }..`.G0..1..
     438:	87 02 1e fc 00 47 fc 00 00 fd 00 00 75 02 00 60     .....G......u..`
     448:	06 47 30 0a 00 fd 80 02 7f 02 1e fc 00 47 fc 00     .G0..........G..
     458:	00 fd 00 00 70 c2 0f 60 10 47 4c 0e 00 fd 80 02     ....p..`.GL.....
     468:	fc c0 00 fc 00 47 fc 00 00 fd 80 02 fd 80 02 60     .....G.........`
     478:	06 47 44 0c 00 31 04 00 fd 80 02 fc 00 47 fc 00     .GD..1.......G..
     488:	00 33 04 20 75 02 00 68 08 37 30 0a 00 39 04 00     .3. u..h.70..9..
     498:	73 02 1e fc 00 37 fc 00 00 fd 00 00 71 02 00 68     s....7......q..h
     4a8:	06 37 30 0a 00 fd 80 02 77 02 1e fc 00 37 fc 00     .70.....w....7..
     4b8:	00 fd 80 02 68 c2 0f 68 10 37 4c 0e 00 39 04 00     ....h..h.7L..9..
     4c8:	fc c0 00 fc 00 37 fc 00 00 3b 04 20 fd 80 02 68     .....7...;. ...h
     4d8:	06 37 44 0c 00 39 04 00 fd 80 02 fc 00 37 44 0c     .7D..9.......7D.
     4e8:	00 3b 04 20 71 02 00 54 08 37 30 0a 00 25 04 00     .;. q..T.70..%..
     4f8:	6b 02 1e fc 00 37 fc 00 00 fd 00 00 69 02 00 54     k....7......i..T
     508:	06 37 30 0a 00 fd 80 02 73 02 1e fc 00 37 fc 00     .70.....s....7..
     518:	00 fd 80 02 60 c2 1f 54 10 37 4c 0e 00 55 04 00     ....`..T.7L..U..
     528:	fc c0 00 fc 00 37 fc 00 00 fd 00 00 fd 80 02 54     .....7.........T
     538:	06 37 30 0a 00 fd 80 02 fd 80 02 fc 00 37 4c 0e     .70..........7L.
     548:	00 fd 80 02 68 c2 0f 58 08 47 30 0a 00 29 04 00     ....h..X.G0..)..
     558:	fd 00 00 fc 00 47 fc 00 00 fd 00 00 fd 80 02 58     .....G.........X
     568:	06 47 30 0a 00 fd 80 02 fd 80 02 fc 00 47 fc 00     .G0..........G..
     578:	00 fd 80 02 7c c2 0f 58 10 47 4c 0e 00 15 04 00     ....|..X.GL.....
     588:	fc c0 00 fc 00 47 fc 00 00 2b 04 20 fd 80 02 58     .....G...+. ...X
     598:	06 47 44 0c 00 29 04 00 fd 80 02 fc 00 47 44 0c     .GD..).......GD.
     5a8:	00 17 04 20 71 02 00 60 08 47 30 0a 00 31 04 00     ... q..`.G0..1..
     5b8:	fd 00 00 fc 00 47 fc 00 00 fd 00 00 fd 80 02 60     .....G.........`
     5c8:	06 47 30 0a 00 fd 80 02 fd 80 02 fc 00 47 fc 00     .G0..........G..
     5d8:	00 fd 00 00 61 02 00 60 10 47 4c 0e 00 fd 80 02     ....a..`.GL.....
     5e8:	fd 00 00 fc 00 47 fc 00 00 fd 80 02 fd 80 02 60     .....G.........`
     5f8:	06 47 44 0c 00 61 04 00 fd 80 02 fc 00 47 fc 00     .GD..a.......G..
     608:	00 33 04 20 68 c2 04 68 08 37 30 0a 00 39 04 00     .3. h..h.70..9..
     618:	fc c0 00 fc 00 37 fc 00 00 fd 00 00 fc c0 00 68     .....7.........h
     628:	06 37 30 0a 00 fd 80 02 fc c0 00 fc 00 37 fc 00     .70..........7..
     638:	00 fd 00 00 fd 00 00 68 10 37 4c 0e 00 fd 80 02     .......h.7L.....
     648:	fd 00 00 fc 00 37 fc 00 00 fd 80 02 fd 00 a2 68     .....7.........h
     658:	06 37 44 0c 00 25 04 00 fd 00 00 fc 00 37 44 0c     .7D..%.......7D.
     668:	00 3b 04 20 fd 80 02 68 08 37 30 0a 00 39 04 00     .;. ...h.70..9..
     678:	fd 00 b1 fc 00 37 fc 00 00 fd 00 00 fd 80 02 68     .....7.........h
     688:	06 37 44 0e 00 fd 80 02 fd 80 02 fc 00 37 fc 00     .7D..........7..
     698:	00 fd 00 00 54 c2 08 68 10 37 4c 0e 00 fd 80 02     ....T..h.7L.....
     6a8:	fc c0 00 fc 00 37 fc 00 00 fd 00 00 fc c0 00 68     .....7.........h
     6b8:	06 37 44 0e 00 fd 80 02 57 02 15 fc 00 37 48 0e     .7D.....W....7H.
     6c8:	00 fd 80 02 55 02 82 fc 00 00 33 ca 04 55 04 a2     ....U.....3..U..
     6d8:	fd 00 00 fc 00 00 4c 0e 00 fd 00 00 fd 80 02 fc     ......L.........
     6e8:	00 00 4b 0e 20 fd 80 02 fd 80 02 ff 40 00 4c 0e     ..K. .......@.L.
     6f8:	00 fd 80 02 fc 00 00 fc 00 00 fc 00 00 fc 00 00     ................
     708:	fc 00 00 fc 00 00 fc 00 00 fc 00 00 fc 00 00 fc     ................
     718:	00 00 fc 00 00 fc 00 00 fc 00 00 fc 00 00 fc 00     ................
     728:	00 fc 00 00 fc 00 00 fc 00 00 fc 00 00 fc 00 00     ................
     738:	fc 00 00 fc 00 00 fc 00 00 fc 00 00 fc 00 00 fc     ................
     748:	00 00 fc 00 00 fc 00 00 fc 00 00 fc 00 00 fc 00     ................
     758:	00 fc 00 00 fc 00 00 fc 00 00 fc 00 00 fc 00 00     ................
     768:	fc 00 00 fc 00 00 fc 00 00 fc 00 00 fc 00 00 fc     ................
     778:	00 00 fc 00 00 fc 00 00 fc 00 00 fc 00 00 fc 00     ................
     788:	00 fc 00 00 fc 00 00 fc 00 00 fc 00 00 fc 00 00     ................
     798:	fc 00 00 fc 00 00 fc 00 00 fc 00 00 fc 00 00 fc     ................
     7a8:	00 00 fc 00 00 fc 00 00 fc 00 00 fc 00 00 fc 00     ................
     7b8:	00 fc 00 00 fc 00 00 fc 00 00 fc 00 00 fc 00 00     ................
     7c8:	fc 00 00 fc 00 00 fc 00 00 fc 00 00 fc 00 00 fc     ................
     7d8:	00 00 fc 00 00 fc 00 00 fc 00 00 fc 00 00 fc 00     ................
     7e8:	00 fc 00 00 fc 00 00 fc 00 00 fc 00 00 fc 00 00     ................
     7f8:	fc 00 00 fc 00 00 fc 00 00 fc 00 00 fc 00 00 fc     ................
     808:	00 00 fc 00 00 fc 00 00 fc 00 00 fc 00 00 fc 00     ................
     818:	00 fc 00 00 fc 00 00 fc 00 00 fc 00 00 fc 00 00     ................
     828:	fc 00 00 fc 00 00 fc 00 00 fc 00 00 fc 00 00 fc     ................
     838:	00 00 fc 00 00 fc 00 00 fc 00 00 fc 00 00 fc 00     ................
     848:	00 fc 00 00 fc 00 00 fc 00 00 fc 00 00 fc 00 00     ................
     858:	fc 00 00 fc 00 00 fc 00 00 fc 00 00 fc 00 00 fc     ................
     868:	00 00 fc 00 00 fc 00 00 fc 00 00 fc 00 00 fc 00     ................
     878:	00 fc 00 00 fc 00 00 fc 00 00 fc 00 00 fc 00 00     ................
     888:	fc 00 00 fc 00 00 fc 00 00 fc 00 00 fc 00 00 fc     ................
     898:	00 00 fc 00 00 fc 00 00 fc 00 00 fc 00 00 fc 00     ................
     8a8:	00 fc 00 00 fc 00 00 fc 00 00 fc 00 00 fc 00 00     ................
     8b8:	fc 00 00 fc 00 00 fc 00 00 fc 00 00 fc 00 00 fc     ................
     8c8:	00 00 fc 00 00 fc 00 00 fc 00 00 fc 00 00 fc 00     ................
     8d8:	00 fc 00 00 fc 00 00 fc 00 00 fc 00 00 fc 00 00     ................
     8e8:	fc 00 00 fc 00 00 fc 00 00 fc 00 00 fc 00 00 fc     ................
     8f8:	00 00 fc 00 00 fc 00 00 fc 00 00 fc 00 00 fc 00     ................
     908:	00 fc 00 00 fc 00 00 fc 00 00 fc 00 00 fc 00 00     ................
     918:	fc 00 00 fc 00 00 fc 00 00 fc 00 00 fc 00 00 fc     ................
     928:	00 00 fc 00 00 fc 00 00 fc 00 00 fc 00 00 fc 00     ................
     938:	00 fc 00 00 fc 00 00 fc 00 00 fc 00 00 fc 00 00     ................
     948:	fc 00 00 fc 00 00 fc 00 00 fc 00 00 fc 00 00 fc     ................
     958:	00 00 fc 00 00 fc 00 00 fc 00 00 fc 00 00 fc 00     ................
     968:	00 fc 00 00 fc 00 00 fc 00 00 fc 00 00 fc 00 00     ................
     978:	fc 00 00 fc 00 00 fc 00 00 fc 00 00 fc 00 00 fc     ................
     988:	00 00 fc 00 00 fc 00 00 fc 00 00 fc 00 00 fc 00     ................
     998:	00 fc 00 00 fc 00 00 fc 00 00 fc 00 00 fc 00 00     ................
     9a8:	fc 00 00 fc 00 00 fc 00 00 fc 00 00 fc 00 00 fc     ................
     9b8:	00 00 fc 00 00 fc 00 00 fc 00 00 fc 00 00 fc 00     ................
     9c8:	00 fc 00 00 69 02 82 68 08 37 30 0a 00 39 04 a2     ....i..h.70..9..
     9d8:	fd 00 00 fc 00 37 fc 00 00 fd 00 00 57 02 0e 68     .....7......W..h
     9e8:	06 37 44 0c 00 fd 80 02 6b 02 12 fc 00 37 fc 00     .7D.....k....7..
     9f8:	00 fd 00 00 fd 00 00 68 10 37 44 0c 00 fd 80 02     .......h.7D.....
     a08:	57 02 05 fc 00 37 fc 00 00 fd 80 02 71 02 00 68     W....7......q..h
     a18:	06 37 44 0c 00 39 04 00 fd 00 00 fc 00 37 44 0c     .7D..9.......7D.
     a28:	00 3b 04 20 75 02 00 60 08 47 4c 0e 00 31 04 00     .;. u..`.GL..1..
     a38:	73 02 12 fc 00 47 fc 00 00 fd 00 00 71 02 00 60     s....G......q..`
     a48:	06 47 44 0c 00 fd 80 02 77 02 12 fc 00 47 fc 00     .GD.....w....G..
     a58:	00 fd 80 02 69 02 00 60 10 47 30 0a 00 31 04 00     ....i..`.G0..1..
     a68:	73 02 12 fc 00 47 fc 00 00 fd 00 00 77 02 0e 60     s....G......w..`
     a78:	06 47 44 0c 00 fd 80 02 6b 02 12 fc 00 47 fc 00     .GD.....k....G..
     a88:	00 fd 80 02 61 02 00 74 08 47 30 0a 00 45 04 00     ....a..t.G0..E..
     a98:	77 02 05 fc 00 47 fc 00 00 fd 00 00 6b 02 0e 74     w....G......k..t
     aa8:	06 47 44 0c 00 fd 80 02 63 02 12 fc 00 47 fc 00     .GD.....c....G..
     ab8:	00 fd 00 00 55 02 00 74 10 47 44 0c 00 fd 80 02     ....U..t.GD.....
     ac8:	6b 02 05 fc 00 47 fc 00 00 fd 00 00 63 02 0e 74     k....G......c..t
     ad8:	06 47 44 0c 00 fd 80 02 57 02 12 fc 00 47 44 0c     .GD.....W....GD.
     ae8:	00 fd 80 02 4d 02 00 60 08 47 4c 0e 00 31 04 00     ....M..`.GL..1..
     af8:	63 02 05 fc 00 47 fc 00 00 fd 00 00 57 02 0e 60     c....G......W..`
     b08:	06 47 44 0c 00 fd 80 02 4f 02 12 fc 00 47 fc 00     .GD.....O....G..
     b18:	00 fd 00 00 61 02 00 60 10 47 30 0a 00 fd 80 02     ....a..`.G0.....
     b28:	57 02 05 fc 00 47 fc 00 00 fd 00 00 4f 02 0e 60     W....G......O..`
     b38:	06 47 44 0c 00 fd 80 02 63 02 12 fc 00 47 fc 00     .GD.....c....G..
     b48:	00 fd 80 02 69 02 00 58 08 47 30 0a 00 29 04 00     ....i..X.G0..)..
     b58:	4f 02 05 fc 00 47 fc 00 00 fd 00 00 71 02 00 58     O....G......q..X
     b68:	06 47 44 0c 00 fd 80 02 6b 02 12 fc 00 47 fc 00     .GD.....k....G..
     b78:	00 fd 80 02 69 02 00 58 10 47 44 0c 00 15 04 00     ....i..X.GD.....
     b88:	73 02 12 fc 00 47 fc 00 00 2b 04 20 61 02 00 58     s....G...+. a..X
     b98:	06 47 44 0c 00 29 04 00 6b 02 12 fc 00 47 44 0c     .GD..)..k....GD.
     ba8:	00 17 04 20 69 02 00 60 08 47 4c 0e 00 31 04 00     ... i..`.GL..1..
     bb8:	63 02 12 fc 00 47 fc 00 00 fd 00 00 6b 02 0e 60     c....G......k..`
     bc8:	06 47 44 0c 00 fd 80 02 6b 02 12 fc 00 47 fc 00     .GD.....k....G..
     bd8:	00 fd 80 02 61 02 00 60 10 47 30 0a 00 1d 04 00     ....a..`.G0.....
     be8:	6b 02 05 fc 00 47 fc 00 00 33 04 20 6b 02 0e 60     k....G...3. k..`
     bf8:	06 47 44 0c 00 31 04 00 63 02 12 fc 00 47 fc 00     .GD..1..c....G..
     c08:	00 1f 04 20 69 02 00 68 08 37 30 0a 00 39 04 00     ... i..h.70..9..
     c18:	6b 02 05 fc 00 37 fc 00 00 fd 00 00 63 02 0e 68     k....7......c..h
     c28:	06 37 44 0c 00 fd 80 02 6b 02 12 fc 00 37 fc 00     .7D.....k....7..
     c38:	00 fd 00 00 6b 02 03 68 10 37 44 0c 00 fd 80 02     ....k..h.7D.....
     c48:	63 02 05 fc 00 37 fc 00 00 fd 80 02 6b 02 0e 68     c....7......k..h
     c58:	06 37 44 0c 00 25 04 00 6b 02 01 fc 00 37 44 0c     .7D..%..k....7D.
     c68:	00 3b 04 20 63 02 03 68 08 37 4c 0e 00 09 04 00     .;. c..h.7L.....
     c78:	6b 02 05 fc 00 37 fc 00 00 fd 00 00 fd 00 00 68     k....7.........h
     c88:	06 37 44 0c 00 fd 80 02 63 02 01 fc 00 37 fc 00     .7D.....c....7..
     c98:	00 fd 80 02 68 c2 0f 60 10 47 4c 0e 00 39 04 00     ....h..`.GL..9..
     ca8:	fc c0 00 fc 00 47 fc 00 00 3b 04 20 71 02 00 60     .....G...;. q..`
     cb8:	06 47 48 0e 00 31 04 00 6b 02 12 fc 00 47 fc 00     .GH..1..k....G..
     cc8:	00 3b 04 20 75 02 82 74 08 47 30 0a 00 45 04 a2     .;. u..t.G0..E..
     cd8:	fd 00 00 fc 00 47 fc 00 00 fd 00 00 fd 00 00 74     .....G.........t
     ce8:	06 47 44 0c 00 fd 80 02 77 02 12 fc 00 47 fc 00     .GD.....w....G..
     cf8:	00 fd 00 00 84 c2 0f 74 10 47 44 0c 00 fd 80 02     .......t.GD.....
     d08:	fc c0 00 fc 00 47 fc 00 00 fd 80 02 77 02 0e 74     .....G......w..t
     d18:	06 47 44 0c 00 45 04 00 87 02 12 fc 00 47 44 0c     .GD..E.......GD.
     d28:	00 47 04 20 7d 02 00 60 08 47 4c 0e 00 31 04 00     .G. }..`.GL..1..
     d38:	77 02 05 fc 00 47 fc 00 00 fd 00 00 75 02 00 60     w....G......u..`
     d48:	06 47 44 0c 00 fd 80 02 7f 02 12 fc 00 47 fc 00     .GD..........G..
     d58:	00 fd 00 00 71 02 00 60 10 47 30 0a 00 fd 80 02     ....q..`.G0.....
     d68:	77 02 12 fc 00 47 fc 00 00 fd 80 02 7f 02 0e 60     w....G.........`
     d78:	06 47 44 0c 00 31 04 00 73 02 12 fc 00 47 fc 00     .GD..1..s....G..
     d88:	00 33 04 20 75 02 00 68 08 37 30 0a 00 39 04 00     .3. u..h.70..9..
     d98:	7f 02 05 fc 00 37 fc 00 00 fd 00 00 71 02 00 68     .....7......q..h
     da8:	06 37 44 0c 00 fd 00 00 77 02 12 fc 00 37 fc 00     .7D.....w....7..
     db8:	00 fd 00 00 69 02 00 68 10 37 44 0c 00 39 04 00     ....i..h.7D..9..
     dc8:	73 02 12 fc 00 37 fc 00 00 3b 04 20 77 02 0e 68     s....7...;. w..h
     dd8:	06 37 44 0c 00 39 04 00 6b 02 12 fc 00 37 44 0c     .7D..9..k....7D.
     de8:	00 3b 04 20 71 02 00 54 08 37 4c 0e 00 25 04 00     .;. q..T.7L..%..
     df8:	77 02 05 fc 00 37 fc 00 00 fd 00 00 69 02 00 54     w....7......i..T
     e08:	06 37 44 0c 00 fd 80 02 73 02 12 fc 00 37 fc 00     .7D.....s....7..
     e18:	00 fd 80 02 61 02 00 54 10 37 30 0a 00 55 04 00     ....a..T.70..U..
     e28:	6b 02 12 fc 00 37 fc 00 00 fd 00 00 73 02 0e 54     k....7......s..T
     e38:	06 37 44 0c 00 fd 80 02 63 02 12 fc 00 37 fc 00     .7D.....c....7..
     e48:	00 fd 80 02 68 c2 0f 58 08 47 30 0a 00 29 04 00     ....h..X.G0..)..
     e58:	73 02 05 fc 00 47 fc 00 00 fd 00 00 63 02 0e 58     s....G......c..X
     e68:	06 47 44 0c 00 fd 80 02 6b 02 12 fc 00 47 fc 00     .GD.....k....G..
     e78:	00 fd 80 02 7d 02 00 58 10 47 44 0c 00 15 04 00     ....}..X.GD.....
     e88:	63 02 05 fc 00 47 fc 00 00 2b 04 20 6b 02 0e 58     c....G...+. k..X
     e98:	06 47 44 0c 00 29 04 00 7f 02 12 fc 00 47 44 0c     .GD..).......GD.
     ea8:	00 17 04 20 70 c2 0f 60 08 47 4c 0e 00 31 04 00     ... p..`.GL..1..
     eb8:	6b 02 05 fc 00 47 fc 00 00 fd 00 00 7f 02 0e 60     k....G.........`
     ec8:	06 47 44 0c 00 fd 80 02 73 02 12 fc 00 47 fc 00     .GD.....s....G..
     ed8:	00 fd 00 00 61 02 00 60 10 47 30 0a 00 fd 80 02     ....a..`.G0.....
     ee8:	7f 02 05 fc 00 47 fc 00 00 fd 80 02 73 02 0e 60     .....G......s..`
     ef8:	06 47 44 0c 00 61 04 00 63 02 15 fc 00 47 fc 00     .GD..a..c....G..
     f08:	00 33 04 20 68 c2 0f 68 08 37 30 0a 00 39 04 00     .3. h..h.70..9..
     f18:	73 02 05 fc 00 37 fc 00 00 fd 00 00 63 02 0e 68     s....7......c..h
     f28:	06 37 44 0c 00 fd 80 02 6b 02 12 fc 00 37 fc 00     .7D.....k....7..
     f38:	00 fd 00 00 73 02 03 68 10 37 44 0c 00 fd 80 02     ....s..h.7D.....
     f48:	63 02 05 fc 00 37 fc 00 00 fd 80 02 6b 02 0e 68     c....7......k..h
     f58:	06 37 44 0c 00 25 04 00 73 02 03 fc 00 37 44 0c     .7D..%..s....7D.
     f68:	00 3b 04 20 63 02 03 68 08 37 43 0e 40 39 04 00     .;. c..h.7C.@9..
     f78:	6b 02 05 68 10 37 47 0e 20 fd 00 00 73 02 01 68     k..h.7G. ...s..h
     f88:	06 37 4b 0e 40 fd 80 02 63 02 01 68 08 37 47 0e     .7K.@...c..h.7G.
     f98:	30 fd 00 00 6b 02 03 68 06 37 30 0a 00 fd 80 02     0...k..h.70.....
     fa8:	fd 00 00 68 08 37 fc 00 00 fd 00 00 fd 00 00 68     ...h.7.........h
     fb8:	10 37 30 0a 00 fd 80 02 6b 02 01 68 08 37 4f 0e     .70.....k..h.7O.
     fc8:	20 fd 80 02 69 02 82 68 08 37 30 0a 00 39 04 a2      ...i..h.70..9..
     fd8:	ff 00 1e 68 10 37 fc 00 00 fd 00 00 55 02 00 68     ...h.7......U..h
     fe8:	06 37 44 0c 00 fd 80 02 6b 02 1e 68 08 37 fc 00     .7D.....k..h.7..
     ff8:	00 fd 80 02 55 02 00 68 06 37 4c 0e 00 69 04 00     ....U..h.7L..i..
    1008:	57 02 1e 68 08 37 fc 00 00 3b 04 20 71 02 00 68     W..h.7...;. q..h
    1018:	10 37 30 0a 00 39 04 00 57 02 1e 68 08 37 fc 00     .70..9..W..h.7..
    1028:	00 fd 00 00 55 02 00 68 08 37 44 0c 00 fd 80 02     ....U..h.7D.....
    1038:	73 02 1e 68 10 37 fc 00 00 fd 80 02 55 02 00 68     s..h.7......U..h
    1048:	06 37 30 0a 00 55 04 00 57 02 1e 68 08 37 fc 00     .70..U..W..h.7..
    1058:	00 3b 04 20 68 c2 4f 68 06 37 4c 0e 00 45 04 00     .;. h.Oh.7L..E..
    1068:	57 02 1e 68 08 37 fc 00 00 57 04 20 71 02 00 68     W..h.7...W. q..h
    1078:	10 37 30 0a 00 41 04 00 6b 02 1e 68 08 37 fc 00     .70..A..k..h.7..
    1088:	00 47 04 20 74 c2 0f 68 08 37 30 0a 00 39 04 00     .G. t..h.70..9..
    1098:	73 02 1e 68 10 37 fc 00 00 fd 00 00 55 02 00 68     s..h.7......U..h
    10a8:	06 37 44 0c 00 fd 80 02 77 02 1e 68 08 37 fc 00     .7D.....w..h.7..
    10b8:	00 fd 80 02 55 02 00 68 06 37 4c 0e 00 69 04 00     ....U..h.7L..i..
    10c8:	57 02 1e 68 08 37 fc 00 00 3b 04 20 85 02 00 68     W..h.7...;. ...h
    10d8:	10 37 30 0a 00 39 04 00 57 02 1e 68 08 37 fc 00     .70..9..W..h.7..
    10e8:	00 fd 00 00 55 02 00 68 08 37 44 0c 00 fd 80 02     ....U..h.7D.....
    10f8:	87 02 1e 68 10 37 fc 00 00 fd 80 02 55 02 00 68     ...h.7......U..h
    1108:	06 37 30 0a 00 31 04 00 57 02 1e 68 08 37 fc 00     .70..1..W..h.7..
    1118:	00 3b 04 20 74 c2 4f 68 06 37 4c 0e 00 39 04 00     .;. t.Oh.7L..9..
    1128:	57 02 1e 68 08 37 fc 00 00 33 04 20 71 02 00 68     W..h.7...3. q..h
    1138:	10 37 30 0a 00 41 04 00 77 02 1e 68 08 37 fc 00     .70..A..w..h.7..
    1148:	00 3b 04 20 74 c2 0f 74 08 47 30 0a 00 45 04 00     .;. t..t.G0..E..
    1158:	73 02 1e 74 10 47 fc 00 00 fd 00 00 61 02 00 74     s..t.G......a..t
    1168:	06 47 44 0c 00 fd 80 02 77 02 1e 74 08 47 fc 00     .GD.....w..t.G..
    1178:	00 fd 80 02 61 02 00 74 06 47 4c 0e 00 85 04 00     ....a..t.GL.....
    1188:	63 02 1e 74 08 47 fc 00 00 47 04 20 85 02 00 74     c..t.G...G. ...t
    1198:	10 47 30 0a 00 45 04 00 63 02 1e 74 08 47 fc 00     .G0..E..c..t.G..
    11a8:	00 fd 00 00 61 02 00 74 08 47 44 0c 00 fd 80 02     ....a..t.GD.....
    11b8:	87 02 1e 74 10 47 fc 00 00 fd 80 02 61 02 00 74     ...t.G......a..t
    11c8:	06 47 30 0a 00 31 04 00 63 02 1e 74 08 47 fc 00     .G0..1..c..t.G..
    11d8:	00 47 04 20 88 c2 4f 74 06 47 4c 0e 00 45 04 00     .G. ..Ot.GL..E..
    11e8:	63 02 1e 74 08 47 fc 00 00 33 04 20 7d 02 00 74     c..t.G...3. }..t
    11f8:	10 47 30 0a 00 41 04 00 8b 02 1e 74 08 47 fc 00     .G0..A.....t.G..
    1208:	00 47 04 20 84 c2 0f 74 08 47 30 0a 00 45 04 00     .G. ...t.G0..E..
    1218:	7f 02 1e 74 10 47 fc 00 00 fd 00 00 61 02 00 74     ...t.G......a..t
    1228:	06 47 44 0c 00 fd 80 02 87 02 1e 74 08 47 fc 00     .GD........t.G..
    1238:	00 fd 80 02 61 02 00 74 06 47 4c 0e 00 75 04 00     ....a..t.GL..u..
    1248:	63 02 1e 74 08 47 fc 00 00 47 04 20 75 02 00 74     c..t.G...G. u..t
    1258:	10 47 30 0a 00 45 04 00 63 02 1e 74 08 47 fc 00     .G0..E..c..t.G..
    1268:	00 fd 00 00 61 02 00 74 08 47 44 0c 00 fd 80 02     ....a..t.GD.....
    1278:	77 02 1e 74 10 47 fc 00 00 fd 80 02 61 02 00 74     w..t.G......a..t
    1288:	06 47 30 0a 00 31 04 00 63 02 1e 74 08 47 fc 00     .G0..1..c..t.G..
    1298:	00 47 04 20 74 c2 4f 74 06 47 4c 0e 00 55 04 00     .G. t.Ot.GL..U..
    12a8:	63 02 1e 74 08 47 fc 00 00 33 04 20 71 02 00 74     c..t.G...3. q..t
    12b8:	10 47 44 0e 00 45 04 00 77 02 1e 74 08 47 4b 0e     .GD..E..w..t.GK.
    12c8:	20 57 04 20 89 02 82 7c 08 37 30 0a 00 4d 04 a2      W. ...|.70..M..
    12d8:	ff 00 1e 7c 10 37 fc 00 00 fd 00 00 69 02 00 7c     ...|.7......i..|
    12e8:	06 37 44 0c 00 fd 80 02 8b 02 1e 7c 08 37 fc 00     .7D........|.7..
    12f8:	00 fd 80 02 69 02 00 7c 06 37 4c 0e 00 89 04 00     ....i..|.7L.....
    1308:	6b 02 1e 7c 08 37 fc 00 00 4f 04 20 7d 02 00 7c     k..|.7...O. }..|
    1318:	10 37 30 0a 00 4d 04 00 6b 02 1e 7c 08 37 fc 00     .70..M..k..|.7..
    1328:	00 fd 00 00 69 02 00 7c 08 37 44 0c 00 fd 80 02     ....i..|.7D.....
    1338:	7f 02 1e 7c 10 37 fc 00 00 fd 80 02 69 02 00 7c     ...|.7......i..|
    1348:	06 37 30 0a 00 7d 04 00 6b 02 1e 7c 08 37 fc 00     .70..}..k..|.7..
    1358:	00 4f 04 20 84 c2 4f 7c 06 37 4c 0e 00 69 04 00     .O. ..O|.7L..i..
    1368:	6b 02 1e 7c 08 37 fc 00 00 7f 04 20 89 02 00 7c     k..|.7..... ...|
    1378:	10 37 30 0a 00 59 04 00 87 02 1e 7c 08 37 fc 00     .70..Y.....|.7..
    1388:	00 6b 04 20 7c c2 0f 7c 08 37 30 0a 00 4d 04 00     .k. |..|.70..M..
    1398:	8b 02 1e 7c 10 37 fc 00 00 fd 00 00 59 02 00 7c     ...|.7......Y..|
    13a8:	06 37 44 0c 00 fd 80 02 7f 02 1e 7c 08 37 fc 00     .7D........|.7..
    13b8:	00 fd 80 02 59 02 00 7c 06 37 4c 0e 00 7d 04 00     ....Y..|.7L..}..
    13c8:	5b 02 1e 7c 08 37 fc 00 00 4f 04 20 7d 02 00 7c     [..|.7...O. }..|
    13d8:	10 37 30 0a 00 4d 04 00 5b 02 1e 7c 08 37 fc 00     .70..M..[..|.7..
    13e8:	00 fd 00 00 59 02 00 7c 08 37 44 0c 00 fd 80 02     ....Y..|.7D.....
    13f8:	7f 02 1e 7c 10 37 fc 00 00 fd 80 02 69 02 00 7c     ...|.7......i..|
    1408:	06 37 30 0a 00 39 04 00 5b 02 1e 7c 08 37 fc 00     .70..9..[..|.7..
    1418:	00 4f 04 20 7c c2 4f 7c 06 37 4c 0e 00 4d 04 00     .O. |.O|.7L..M..
    1428:	6b 02 1e 7c 08 37 fc 00 00 3b 04 20 89 02 00 7c     k..|.7...;. ...|
    1438:	10 37 30 0a 00 39 04 00 7f 02 1e 7c 08 37 fc 00     .70..9.....|.7..
    1448:	00 4f 04 20 84 c2 0f 74 08 47 30 0a 00 45 04 00     .O. ...t.G0..E..
    1458:	8b 02 1e 74 10 47 fc 00 00 fd 00 00 61 02 00 74     ...t.G......a..t
    1468:	06 47 44 0c 00 fd 80 02 87 02 1e 74 08 47 fc 00     .GD........t.G..
    1478:	00 fd 80 02 61 02 00 74 06 47 4c 0e 00 85 04 00     ....a..t.GL.....
    1488:	63 02 1e 74 08 47 fc 00 00 47 04 20 75 02 00 74     c..t.G...G. u..t
    1498:	10 47 30 0a 00 45 04 00 63 02 1e 74 08 47 fc 00     .G0..E..c..t.G..
    14a8:	00 fd 00 00 61 02 00 74 08 47 44 0c 00 fd 80 02     ....a..t.GD.....
    14b8:	77 02 1e 74 10 47 fc 00 00 fd 80 02 61 02 00 74     w..t.G......a..t
    14c8:	06 47 30 0a 00 31 04 00 63 02 1e 74 08 47 fc 00     .G0..1..c..t.G..
    14d8:	00 47 04 20 84 c2 4f 74 06 47 4c 0e 00 39 04 00     .G. ..Ot.GL..9..
    14e8:	63 02 1e 74 08 47 fc 00 00 33 04 20 7d 02 00 74     c..t.G...3. }..t
    14f8:	10 47 30 0a 00 31 04 00 87 02 1e 74 08 47 fc 00     .G0..1.....t.G..
    1508:	00 3b 04 20 74 c2 4f 74 08 47 30 0a 00 45 04 00     .;. t.Ot.G0..E..
    1518:	7f 02 1e 74 10 47 fc 00 00 fd 00 00 55 02 00 74     ...t.G......U..t
    1528:	06 47 44 0c 00 fd 80 02 77 02 1e 74 08 47 fc 00     .GD.....w..t.G..
    1538:	00 fd 80 02 55 02 00 74 06 47 4c 0e 00 75 04 00     ....U..t.GL..u..
    1548:	57 02 1e 74 08 47 fc 00 00 47 04 20 61 02 00 74     W..t.G...G. a..t
    1558:	10 47 30 0a 00 45 04 00 57 02 1e 74 08 47 fc 00     .G0..E..W..t.G..
    1568:	00 fd 00 00 55 02 00 74 08 47 44 0c 00 fd 80 02     ....U..t.GD.....
    1578:	63 02 1e 74 10 47 fc 00 00 fd 80 02 61 02 00 74     c..t.G......a..t
    1588:	06 47 30 0a 00 75 04 00 57 02 1e 74 08 47 fc 00     .G0..u..W..t.G..
    1598:	00 47 04 20 74 c2 4f 74 06 47 4c 0e 00 85 04 00     .G. t.Ot.GL.....
    15a8:	63 02 1e 74 08 47 fc 00 00 77 04 20 85 02 00 74     c..t.G...w. ...t
    15b8:	10 47 44 0e 00 75 04 00 77 02 1e 74 08 47 4b 0e     .GD..u..w..t.GK.
    15c8:	20 57 04 20 7d 02 82 60 08 47 30 0a 00 31 04 a2      W. }..`.G0..1..
    15d8:	ff 00 1e 60 10 47 fc 00 00 fd 00 00 4d 02 00 60     ...`.G......M..`
    15e8:	06 47 44 0c 00 fd 80 02 7f 02 1e 60 08 47 fc 00     .GD........`.G..
    15f8:	00 fd 80 02 4d 02 00 60 06 47 4c 0e 00 61 04 00     ....M..`.GL..a..
    1608:	4f 02 1e 60 08 47 fc 00 00 33 04 20 61 02 00 60     O..`.G...3. a..`
    1618:	10 47 30 0a 00 31 04 00 4f 02 1e 60 08 47 fc 00     .G0..1..O..`.G..
    1628:	00 fd 00 00 4d 02 00 60 08 47 44 0c 00 fd 80 02     ....M..`.GD.....
    1638:	63 02 1e 60 10 47 fc 00 00 fd 80 02 4d 02 00 60     c..`.G......M..`
    1648:	06 47 30 0a 00 31 04 00 4f 02 1e 60 08 47 fc 00     .G0..1..O..`.G..
    1658:	00 33 04 20 70 c2 4f 60 06 47 4c 0e 00 4d 04 00     .3. p.O`.GL..M..
    1668:	4f 02 1e 60 08 47 fc 00 00 33 04 20 75 02 00 60     O..`.G...3. u..`
    1678:	10 47 30 0a 00 41 04 00 73 02 1e 60 08 47 fc 00     .G0..A..s..`.G..
    1688:	00 4f 04 20 70 c2 0f 60 08 47 30 0a 00 31 04 00     .O. p..`.G0..1..
    1698:	77 02 1e 60 10 47 fc 00 00 fd 00 00 41 02 00 60     w..`.G......A..`
    16a8:	06 47 44 0c 00 fd 80 02 73 02 1e 60 08 47 fc 00     .GD.....s..`.G..
    16b8:	00 fd 80 02 41 02 00 60 06 47 4c 0e 00 61 04 00     ....A..`.GL..a..
    16c8:	43 02 1e 60 08 47 fc 00 00 33 04 20 61 02 00 60     C..`.G...3. a..`
    16d8:	10 47 30 0a 00 31 04 00 43 02 1e 60 08 47 fc 00     .G0..1..C..`.G..
    16e8:	00 fd 00 00 41 02 00 60 08 47 44 0c 00 fd 80 02     ....A..`.GD.....
    16f8:	63 02 1e 60 10 47 fc 00 00 fd 80 02 41 02 00 60     c..`.G......A..`
    1708:	06 47 30 0a 00 61 04 00 43 02 1e 60 08 47 fc 00     .G0..a..C..`.G..
    1718:	00 33 04 20 68 c2 4f 60 06 47 4c 0e 00 59 04 00     .3. h.O`.GL..Y..
    1728:	43 02 1e 60 08 47 fc 00 00 63 04 20 71 02 00 60     C..`.G...c. q..`
    1738:	10 47 30 0a 00 61 04 00 6b 02 1e 60 08 47 fc 00     .G0..a..k..`.G..
    1748:	00 5b 04 20 64 c2 0f 54 08 47 30 0a 00 25 04 00     .[. d..T.G0..%..
    1758:	73 02 1e 54 10 47 fc 00 00 fd 00 00 55 02 00 54     s..T.G......U..T
    1768:	06 47 44 0c 00 fd 80 02 67 02 1e 54 08 47 fc 00     .GD.....g..T.G..
    1778:	00 fd 80 02 55 02 00 54 06 47 4c 0e 00 55 04 00     ....U..T.GL..U..
    1788:	57 02 1e 54 08 47 fc 00 00 27 04 20 69 02 00 54     W..T.G...'. i..T
    1798:	10 47 30 0a 00 41 04 00 57 02 1e 54 08 47 fc 00     .G0..A..W..T.G..
    17a8:	00 fd 00 00 55 02 00 54 08 47 44 0c 00 fd 80 02     ....U..T.GD.....
    17b8:	6b 02 1e 54 10 47 fc 00 00 fd 80 02 55 02 00 54     k..T.G......U..T
    17c8:	06 47 30 0a 00 41 04 00 57 02 1e 54 08 47 fc 00     .G0..A..W..T.G..
    17d8:	00 43 04 20 64 c2 4f 54 06 47 4c 0e 00 4d 04 00     .C. d.OT.GL..M..
    17e8:	57 02 1e 54 08 47 fc 00 00 43 04 20 69 02 00 54     W..T.G...C. i..T
    17f8:	10 47 30 0a 00 55 04 00 67 02 1e 54 08 47 fc 00     .G0..U..g..T.G..
    1808:	00 4f 04 20 70 c2 0f 54 08 47 30 0a 00 25 04 00     .O. p..T.G0..%..
    1818:	6b 02 1e 54 10 47 fc 00 00 fd 00 00 55 02 00 54     k..T.G......U..T
    1828:	06 47 44 0c 00 fd 80 02 73 02 1e 54 08 47 fc 00     .GD.....s..T.G..
    1838:	00 fd 80 02 55 02 00 54 06 47 4c 0e 00 55 04 00     ....U..T.GL..U..
    1848:	57 02 1e 54 08 47 fc 00 00 27 04 20 85 02 00 54     W..T.G...'. ...T
    1858:	10 47 30 0a 00 65 04 00 57 02 1e 54 08 47 fc 00     .G0..e..W..T.G..
    1868:	00 fd 00 00 54 c2 4f 54 08 47 44 0c 00 57 04 20     ....T.OT.GD..W. 
    1878:	87 02 1e 54 10 47 fc 00 00 fd 80 02 7c c2 4f 54     ...T.G......|.OT
    1888:	06 47 30 0a 00 55 04 00 57 02 1e 54 08 47 fc 00     .G0..U..W..T.G..
    1898:	00 57 04 20 75 02 00 54 06 47 4c 0e 00 5d 04 00     .W. u..T.GL..]..
    18a8:	7f 02 1e 54 08 47 fc 00 00 57 04 20 70 c2 4f 54     ...T.G...W. p.OT
    18b8:	10 47 44 0e 00 65 04 00 77 02 1e 54 08 47 4b 0e     .GD..e..w..T.GK.
    18c8:	20 5f 04 20 69 02 82 68 08 37 30 0a 00 75 02 82      _. i..h.70..u..
    18d8:	fd 00 00 fc 00 37 fc 00 00 fd 00 00 fd 80 02 68     .....7.........h
    18e8:	06 37 44 0c 00 fd 80 02 fd 00 00 fc 00 37 fc 00     .7D..........7..
    18f8:	00 fd 00 00 fd 80 02 68 10 37 44 0c 00 fd 80 02     .......h.7D.....
    1908:	fd 80 02 fc 00 37 fc 00 00 fd 80 02 71 02 00 68     .....7......q..h
    1918:	06 37 44 0c 00 7d 02 00 6b 02 1e fc 00 37 44 0c     .7D..}..k....7D.
    1928:	00 77 02 1e 75 02 00 60 08 47 4c 0e 00 85 02 00     .w..u..`.GL.....
    1938:	73 02 1e fc 00 47 fc 00 00 7f 02 1e 71 02 00 60     s....G......q..`
    1948:	06 47 44 0c 00 7d 02 00 77 02 1e fc 00 47 fc 00     .GD..}..w....G..
    1958:	00 87 02 1e 69 02 00 60 10 47 30 0a 00 75 02 00     ....i..`.G0..u..
    1968:	fd 00 00 fc 00 47 fc 00 00 fd 00 00 fd 80 02 60     .....G.........`
    1978:	06 47 44 0c 00 fd 80 02 fd 80 02 fc 00 47 fc 00     .GD..........G..
    1988:	00 fd 80 02 60 c2 0f 74 08 47 30 0a 00 75 02 00     ....`..t.G0..u..
    1998:	fc c0 00 fc 00 47 fc 00 00 fd 00 00 fd 80 02 74     .....G.........t
    19a8:	06 47 44 0c 00 fd 80 02 fd 80 02 fc 00 47 fc 00     .GD..........G..
    19b8:	00 fd 80 02 55 02 00 74 10 47 44 0c 00 61 02 00     ....U..t.GD..a..
    19c8:	fd 00 00 fc 00 47 fc 00 00 fd 00 00 fd 80 02 74     .....G.........t
    19d8:	06 47 44 0c 00 fd 80 02 fd 80 02 fc 00 47 44 0c     .GD..........GD.
    19e8:	00 fd 80 02 4d 02 00 60 08 47 4c 0e 00 71 02 00     ....M..`.GL..q..
    19f8:	fd 00 00 fc 00 47 fc 00 00 fd 00 00 fd 80 02 60     .....G.........`
    1a08:	06 47 44 0c 00 fd 80 02 fd 80 02 fc 00 47 fc 00     .GD..........G..
    1a18:	00 fd 80 02 60 c2 0f 60 10 47 30 0a 00 7d 02 00     ....`..`.G0..}..
    1a28:	fc c0 00 fc 00 47 fc 00 00 fd 00 00 fd 80 02 60     .....G.........`
    1a38:	06 47 44 0c 00 fd 80 02 fd 80 02 fc 00 47 fc 00     .GD..........G..
    1a48:	00 fd 80 02 69 02 00 58 08 47 30 0a 00 88 c2 04     ....i..X.G0.....
    1a58:	63 02 1e fc 00 47 fc 00 00 fc c0 00 71 02 00 58     c....G......q..X
    1a68:	06 47 44 0c 00 fc c0 00 6b 02 1e fc 00 47 fc 00     .GD.....k....G..
    1a78:	00 fc c0 00 69 02 00 58 10 47 44 0c 00 fd 00 a1     ....i..X.GD.....
    1a88:	73 02 1e fc 00 47 fc 00 00 fd 80 02 61 02 00 58     s....G......a..X
    1a98:	06 47 44 0c 00 fd 00 b2 6b 02 1e fc 00 47 44 0c     .GD.....k....GD.
    1aa8:	00 fd 80 02 69 02 00 60 08 47 4c 0e 00 7d 02 00     ....i..`.GL..}..
    1ab8:	fd 00 00 fc 00 47 fc 00 00 fd 00 00 fd 80 02 60     .....G.........`
    1ac8:	06 47 44 0c 00 fd 80 02 fd 80 02 fc 00 47 fc 00     .GD..........G..
    1ad8:	00 fd 80 02 61 02 00 60 10 47 30 0a 00 89 02 00     ....a..`.G0.....
    1ae8:	fd 00 00 fc 00 47 fc 00 00 fd 00 00 fd 80 02 60     .....G.........`
    1af8:	06 47 44 0c 00 fd 80 02 fd 80 02 fc 00 47 fc 00     .GD..........G..
    1b08:	00 fd 80 02 69 02 00 68 08 37 30 0a 00 85 02 00     ....i..h.70.....
    1b18:	fd 00 00 fc 00 37 fc 00 00 fd 00 00 fd 00 00 68     .....7.........h
    1b28:	06 37 44 0c 00 fd 80 02 fd 00 00 fc 00 37 fc 00     .7D..........7..
    1b38:	00 fd 00 00 fd 00 00 68 10 37 44 0c 00 fd 80 02     .......h.7D.....
    1b48:	fd 00 00 fc 00 37 fc 00 00 fd 80 02 fd 00 a2 68     .....7.........h
    1b58:	06 37 44 0c 00 75 02 00 fd 00 00 fc 00 37 44 0c     .7D..u.......7D.
    1b68:	00 87 02 1e fd 80 02 68 08 37 4c 0e 00 69 02 00     .......h.7L..i..
    1b78:	fd 00 b3 fc 00 37 fc 00 00 fd 00 00 fd 80 02 68     .....7.........h
    1b88:	06 37 44 0c 00 fd 80 02 fd 80 02 fc 00 37 fc 00     .7D..........7..
    1b98:	00 fd 80 02 69 02 00 60 10 47 4c 0e 00 61 02 00     ....i..`.GL..a..
    1ba8:	6b 02 1e fc 00 47 fc 00 00 fd 00 00 71 02 00 60     k....G......q..`
    1bb8:	06 47 48 0e 00 fd 80 02 6b 02 1e fc 00 47 fc 00     .GH.....k....G..
    1bc8:	00 fd 80 02 75 02 82 74 08 47 30 0a 00 85 02 82     ....u..t.G0.....
    1bd8:	fd 00 00 fc 00 47 fc 00 00 fd 00 00 fd 80 02 74     .....G.........t
    1be8:	06 47 44 0c 00 fd 80 02 fd 80 02 fc 00 47 fc 00     .GD..........G..
    1bf8:	00 fd 80 02 85 02 00 74 10 47 44 0c 00 61 02 00     .......t.GD..a..
    1c08:	fd 00 00 fc 00 47 fc 00 00 fd 00 00 fd 80 02 74     .....G.........t
    1c18:	06 47 44 0c 00 fd 80 02 fd 80 02 fc 00 47 44 0c     .GD..........GD.
    1c28:	00 fd 80 02 7d 02 00 60 08 47 4c 0e 00 71 02 00     ....}..`.GL..q..
    1c38:	87 02 1e fc 00 47 fc 00 00 fd 00 00 75 02 00 60     .....G......u..`
    1c48:	06 47 44 0c 00 fd 80 02 7f 02 1e fc 00 47 fc 00     .GD..........G..
    1c58:	00 fd 00 00 71 02 00 60 10 47 30 0a 00 fd 80 02     ....q..`.G0.....
    1c68:	fd 00 00 fc 00 47 fc 00 00 fd 80 02 fd 80 02 60     .....G.........`
    1c78:	06 47 44 0c 00 7d 02 00 fd 80 02 fc 00 47 fc 00     .GD..}.......G..
    1c88:	00 73 02 1e 75 02 00 68 08 37 30 0a 00 85 02 00     .s..u..h.70.....
    1c98:	73 02 1e fc 00 37 fc 00 00 fd 00 00 71 02 00 68     s....7......q..h
    1ca8:	06 37 44 0c 00 fd 80 02 77 02 1e fc 00 37 fc 00     .7D.....w....7..
    1cb8:	00 fd 80 02 69 02 00 68 10 37 44 0c 00 75 02 00     ....i..h.7D..u..
    1cc8:	fd 00 00 fc 00 37 fc 00 00 fd 00 00 fd 80 02 68     .....7.........h
    1cd8:	06 37 44 0c 00 fd 80 02 fd 80 02 fc 00 37 44 0c     .7D..........7D.
    1ce8:	00 fd 80 02 71 02 00 54 08 37 4c 0e 00 55 02 00     ....q..T.7L..U..
    1cf8:	6b 02 1e fc 00 37 fc 00 00 fd 00 00 69 02 00 54     k....7......i..T
    1d08:	06 37 44 0c 00 fd 80 02 73 02 1e fc 00 37 fc 00     .7D.....s....7..
    1d18:	00 fd 80 02 61 02 00 54 10 37 30 0a 00 71 02 00     ....a..T.70..q..
    1d28:	fd 00 00 fc 00 37 fc 00 00 57 02 1e fd 80 02 54     .....7...W.....T
    1d38:	06 37 44 0c 00 61 02 00 fd 80 02 fc 00 37 fc 00     .7D..a.......7..
    1d48:	00 73 02 1e 69 02 00 58 08 47 30 0a 00 59 02 00     .s..i..X.G0..Y..
    1d58:	fd 00 00 fc 00 47 fc 00 00 fd 00 00 fd 80 02 58     .....G.........X
    1d68:	06 47 44 0c 00 fd 00 00 fd 80 02 fc 00 47 fc 00     .GD..........G..
    1d78:	00 fd 00 00 7d 02 00 58 10 47 44 0c 00 fd 80 02     ....}..X.GD.....
    1d88:	fd 00 00 fc 00 47 fc 00 00 fd 00 00 fd 80 02 58     .....G.........X
    1d98:	06 47 44 0c 00 fd 80 02 fd 80 02 fc 00 47 44 0c     .GD..........GD.
    1da8:	00 fd 80 02 71 02 00 60 08 47 4c 0e 00 61 02 00     ....q..`.GL..a..
    1db8:	fd 00 00 fc 00 47 fc 00 00 fd 00 00 fd 80 02 60     .....G.........`
    1dc8:	06 47 44 0c 00 fd 00 00 fd 80 02 fc 00 47 fc 00     .GD..........G..
    1dd8:	00 fd 00 00 61 02 00 60 10 47 30 0a 00 fd 80 02     ....a..`.G0.....
    1de8:	fd 00 00 fc 00 47 fc 00 00 fd 00 00 fd 80 02 60     .....G.........`
    1df8:	06 47 44 0c 00 fd 80 02 fd 80 02 fc 00 47 fc 00     .GD..........G..
    1e08:	00 fd 80 02 68 c2 0f 68 08 37 30 0a 00 74 c2 0f     ....h..h.70..t..
    1e18:	fd 00 00 fc 00 37 fc 00 00 fc c0 00 fd 00 00 68     .....7.........h
    1e28:	06 37 44 0c 00 fd 80 02 fd 00 00 fc 00 37 fc 00     .7D..........7..
    1e38:	00 fd 80 02 fd 80 02 68 10 37 44 0c 00 70 c2 08     .......h.7D..p..
    1e48:	fd 00 00 fc 00 37 fc 00 00 fc c0 00 fd 80 02 68     .....7.........h
    1e58:	06 37 44 0c 00 fd 80 02 fd 00 00 fc 00 37 44 0c     .7D..........7D.
    1e68:	00 fd 80 02 fd 80 02 68 08 37 4c 0e 00 68 c2 08     .......h.7L..h..
    1e78:	fd 00 00 fc 00 37 fc 00 00 fc c0 00 fd 80 02 68     .....7.........h
    1e88:	06 37 30 0a 00 fd 80 02 fd 80 02 fc 00 37 fc 00     .70..........7..
    1e98:	00 fd 80 02 55 02 00 68 10 37 4c 0e 00 55 04 00     ....U..h.7L..U..
    1ea8:	fd 00 00 fc 00 37 fc 00 00 fd 00 00 fd 00 00 68     .....7.........h
    1eb8:	06 37 44 0e 00 fd 80 02 fd 00 00 fc 00 37 48 0e     .7D..........7H.
    1ec8:	00 fd 80 02 74 02 00 68 08 37 30 0a 00 39 04 a2     ....t..h.70..9..
    1ed8:	fc 00 00 fc 00 37 fc 00 00 fd 00 00 70 02 00 68     .....7......p..h
    1ee8:	10 37 44 0c 00 39 04 00 77 02 10 ff 00 00 fc 00     .7D..9..w.......
    1ef8:	00 3b 04 20 68 02 00 68 08 37 44 0c 00 69 04 00     .;. h..h.7D..i..
    1f08:	73 02 10 fc 00 37 fc 00 00 fd 00 00 77 02 0a 68     s....7......w..h
    1f18:	10 37 44 0c 00 3b 04 20 6b 02 10 ff 00 00 44 0c     .7D..;. k.....D.
    1f28:	00 fd 00 00 68 02 00 68 08 37 4c 0e 00 69 04 00     ....h..h.7L..i..
    1f38:	77 02 05 fc 00 37 fc 00 00 fd 00 00 6b 02 0a fc     w....7......k...
    1f48:	00 37 44 0c 00 6b 04 20 6b 02 10 ff 00 00 fc 00     .7D..k. k.......
    1f58:	00 fd 00 00 60 02 00 68 10 37 30 0a 00 39 04 00     ....`..h.70..9..
    1f68:	6b 02 05 fc 00 37 fc 00 00 6b 04 20 6b 02 0a 68     k....7...k. k..h
    1f78:	08 37 44 0c 00 31 04 00 63 02 10 ff 00 00 fc 00     .7D..1..c.......
    1f88:	00 3b 04 20 58 02 00 58 08 47 30 0a 00 29 04 00     .;. X..X.G0..)..
    1f98:	6b 02 05 fc 00 47 fc 00 00 33 04 20 63 02 0a 58     k....G...3. c..X
    1fa8:	10 47 44 0c 00 29 04 00 5b 02 10 ff 00 00 fc 00     .GD..)..[.......
    1fb8:	00 fd 00 00 88 02 00 58 08 47 44 0c 00 2b 04 20     .......X.GD..+. 
    1fc8:	63 02 05 fc 00 47 fc 00 00 fd 00 00 84 02 00 58     c....G.........X
    1fd8:	10 47 44 0c 00 29 04 00 8b 02 10 ff 00 00 44 0c     .GD..)........D.
    1fe8:	00 fd 00 00 7c 02 00 58 08 47 4c 0e 00 59 04 00     ....|..X.GL..Y..
    1ff8:	87 02 10 fc 00 47 fc 00 00 fd 00 00 8b 02 0a fc     .....G..........
    2008:	00 47 44 0c 00 fd 80 02 7f 02 10 ff 00 00 fc 00     .GD.............
    2018:	00 fd 80 02 74 02 00 58 10 47 30 0a 00 55 04 00     ....t..X.G0..U..
    2028:	8b 02 05 fc 00 47 fc 00 00 5b 04 20 7f 02 0a 58     .....G...[. ...X
    2038:	08 47 44 0c 00 59 04 00 77 02 10 ff 00 00 fc 00     .GD..Y..w.......
    2048:	00 57 04 20 70 02 00 70 08 47 30 0a 00 41 04 00     .W. p..p.G0..A..
    2058:	7f 02 05 fc 00 47 fc 00 00 5b 04 20 77 02 0a 70     .....G...[. w..p
    2068:	10 47 44 0c 00 41 04 00 73 02 10 ff 00 00 fc 00     .GD..A..s.......
    2078:	00 fd 00 00 8c 02 00 70 08 47 44 0c 00 fd 80 02     .......p.GD.....
    2088:	77 02 05 fc 00 47 fc 00 00 fd 80 02 84 02 00 70     w....G.........p
    2098:	10 47 44 0c 00 2d 04 00 8f 02 10 ff 00 00 44 0c     .GD..-........D.
    20a8:	00 43 04 20 80 02 00 70 08 47 4c 0e 00 41 04 00     .C. ...p.GL..A..
    20b8:	87 02 10 fc 00 47 fc 00 00 fd 00 00 8f 02 0a fc     .....G..........
    20c8:	00 47 44 0c 00 fd 80 02 83 02 10 ff 00 00 fc 00     .GD.............
    20d8:	00 fd 80 02 70 02 00 70 10 47 30 0a 00 41 04 00     ....p..p.G0..A..
    20e8:	8f 02 05 fc 00 47 fc 00 00 43 04 20 83 02 0a 70     .....G...C. ...p
    20f8:	08 47 44 0c 00 41 84 04 73 02 10 ff 00 00 fc 00     .GD..A..s.......
    2108:	00 51 84 02 84 02 00 54 08 47 30 0a 00 54 c4 08     .Q.....T.G0..T..
    2118:	83 02 05 fc 00 47 fc 00 00 fc c0 00 54 02 00 54     .....G......T..T
    2128:	10 47 44 0c 00 53 04 20 87 02 20 ff 00 00 fc 00     .GD..S. .. .....
    2138:	00 fd 00 00 4c 02 00 54 08 47 4c 0e 00 25 04 00     ....L..T.GL..%..
    2148:	57 02 10 fc 00 47 fc 00 00 fd 00 00 54 02 00 54     W....G......T..T
    2158:	10 47 44 0c 00 57 04 20 4f 02 10 ff 00 00 44 0c     .GD..W. O.....D.
    2168:	00 fd 00 00 44 02 00 54 08 47 4c 0e 00 25 04 00     ....D..T.GL..%..
    2178:	57 02 10 fc 00 47 fc 00 00 27 04 20 54 02 00 fc     W....G...'. T...
    2188:	00 47 47 0e 20 2d 04 00 47 02 10 ff 00 00 fc 00     .GG. -..G.......
    2198:	00 27 04 20 40 02 00 54 10 47 4f 0e 30 35 04 00     .'. @..T.GO.05..
    21a8:	57 02 10 fc 00 47 fc 00 00 2f 04 20 54 02 00 54     W....G.../. T..T
    21b8:	08 47 48 0e 00 41 04 00 43 02 10 ff 00 00 fc 00     .GH..A..C.......
    21c8:	00 37 04 20 39 02 82 68 08 37 30 0a 00 39 04 a2     .7. 9..h.70..9..
    21d8:	fd 00 00 fc 00 37 fc 00 00 fd 00 00 55 02 00 68     .....7......U..h
    21e8:	10 37 44 0c 00 fd 80 02 3b 02 10 ff 00 00 fc 00     .7D.....;.......
    21f8:	00 fd 00 00 4d 02 00 68 08 37 44 0c 00 fd 80 02     ....M..h.7D.....
    2208:	57 02 10 fc 00 37 fc 00 00 fd 80 02 55 02 00 68     W....7......U..h
    2218:	10 37 44 0c 00 25 04 00 4f 02 10 ff 00 00 44 0c     .7D..%..O.....D.
    2228:	00 3b 04 20 45 02 00 68 08 37 4c 0e 00 39 04 00     .;. E..h.7L..9..
    2238:	57 02 10 fc 00 37 fc 00 00 fd 00 00 55 02 00 fc     W....7......U...
    2248:	00 37 44 0c 00 fd 80 02 47 02 10 ff 00 00 fc 00     .7D.....G.......
    2258:	00 fd 80 02 39 02 00 68 10 37 30 0a 00 41 04 00     ....9..h.70..A..
    2268:	57 02 10 fc 00 37 fc 00 00 fd 00 00 41 02 00 68     W....7......A..h
    2278:	08 37 44 0c 00 fd 80 02 3b 02 10 ff 00 00 fc 00     .7D.....;.......
    2288:	00 fd 80 02 44 c2 2f 74 08 47 30 0a 00 45 04 00     ....D./t.G0..E..
    2298:	fc c0 00 fc 00 47 fc 00 00 fd 00 00 61 02 00 74     .....G......a..t
    22a8:	10 47 44 0c 00 fd 80 02 47 02 10 ff 00 00 fc 00     .GD.....G.......
    22b8:	00 fd 80 02 59 02 00 74 08 47 44 0c 00 45 04 00     ....Y..t.GD..E..
    22c8:	63 02 10 fc 00 47 fc 00 00 47 04 20 61 02 00 74     c....G...G. a..t
    22d8:	10 47 44 0c 00 31 04 00 5b 02 10 ff 00 00 44 0c     .GD..1..[.....D.
    22e8:	00 47 04 20 55 02 00 74 08 47 4c 0e 00 45 04 00     .G. U..t.GL..E..
    22f8:	63 02 10 fc 00 47 fc 00 00 33 04 20 61 02 00 fc     c....G...3. a...
    2308:	00 47 44 0c 00 31 04 00 57 02 10 ff 00 00 fc 00     .GD..1..W.......
    2318:	00 47 04 20 45 02 00 74 10 47 30 0a 00 45 04 00     .G. E..t.G0..E..
    2328:	63 02 10 fc 00 47 fc 00 00 33 04 20 61 02 00 74     c....G...3. a..t
    2338:	08 47 44 0c 00 45 84 04 47 02 10 ff 00 00 fc 00     .GD..E..G.......
    2348:	00 55 84 02 4c c2 2f 7c 08 47 30 0a 00 4c c4 0f     .U..L./|.G0..L..
    2358:	fc c0 00 fc 00 47 fc 00 00 fc c0 00 7d 02 00 7c     .....G......}..|
    2368:	10 47 44 0c 00 fd 80 02 4f 02 10 ff 00 00 fc 00     .GD.....O.......
    2378:	00 fd 80 02 69 02 00 7c 08 47 44 0c 00 4d 04 00     ....i..|.GD..M..
    2388:	7f 02 10 fc 00 47 fc 00 00 4f 04 20 61 02 00 7c     .....G...O. a..|
    2398:	10 47 44 0c 00 4d 84 08 6b 02 10 ff 00 00 44 0c     .GD..M..k.....D.
    23a8:	00 39 84 06 5d 02 00 7c 08 47 4c 0e 00 4d 04 00     .9..]..|.GL..M..
    23b8:	63 02 10 fc 00 47 fc 00 00 fd 80 02 55 02 00 fc     c....G......U...
    23c8:	00 47 44 0c 00 1d 04 00 5f 02 10 ff 00 00 fc 00     .GD....._.......
    23d8:	00 4f 04 20 4d 02 00 7c 10 47 30 0a 00 2d 04 00     .O. M..|.G0..-..
    23e8:	57 02 10 fc 00 47 fc 00 00 1f 04 20 45 02 00 7c     W....G..... E..|
    23f8:	08 47 44 0c 00 39 04 00 4f 02 10 ff 00 00 fc 00     .GD..9..O.......
    2408:	00 2f 04 20 40 c2 2f 84 08 47 30 0a 00 55 04 00     ./. @./..G0..U..
    2418:	fc c0 00 fc 00 47 fc 00 00 3b 04 20 35 02 00 84     .....G...;. 5...
    2428:	10 47 44 0c 00 4d 04 00 43 02 10 ff 00 00 fc 00     .GD..M..C.......
    2438:	00 57 04 20 41 02 00 84 08 47 44 0c 00 55 04 00     .W. A....GD..U..
    2448:	37 02 10 fc 00 47 fc 00 00 4f 04 20 4d 02 00 84     7....G...O. M...
    2458:	10 47 44 0c 00 41 04 00 43 02 10 ff 00 00 44 0c     .GD..A..C.....D.
    2468:	00 57 04 20 55 02 00 84 08 47 4c 0e 00 55 04 00     .W. U....GL..U..
    2478:	4f 02 10 fc 00 47 fc 00 00 43 04 20 5d 02 00 fc     O....G...C. ]...
    2488:	00 47 44 0c 00 25 04 00 57 02 10 ff 00 00 fc 00     .GD..%..W.......
    2498:	00 57 04 20 65 02 00 84 10 47 4c 0e 00 2d 04 00     .W. e....GL..-..
    24a8:	5f 02 10 fc 00 47 fc 00 00 27 04 20 71 02 00 84     _....G...'. q...
    24b8:	08 47 48 0e 00 35 04 00 67 02 10 ff 00 00 fc 00     .GH..5..g.......
    24c8:	00 2f 04 20 69 02 82 68 06 37 30 0a 00 39 04 a2     ./. i..h.70..9..
    24d8:	fd 00 00 fc 00 37 fc 00 00 3b 04 20 fd 00 00 fc     .....7...;. ....
    24e8:	00 37 44 0c 00 39 04 00 6b 02 10 fc 00 37 fc 00     .7D..9..k....7..
    24f8:	00 fd 00 00 fd 00 00 68 08 37 44 0c 00 3b 04 20     .......h.7D..;. 
    2508:	fd 80 02 fc 00 37 fc 00 00 fd 00 00 fd 80 02 fc     .....7..........
    2518:	00 37 44 0c 00 39 04 00 6b 02 0a fc 00 37 44 0c     .7D..9..k....7D.
    2528:	00 3b 04 20 69 02 00 fc 00 37 4c 0e 00 69 04 00     .;. i....7L..i..
    2538:	fd 00 00 fc 00 37 fc 00 00 fd 00 00 fd 80 02 fc     .....7..........
    2548:	00 37 44 0c 00 3b 04 20 fd 80 02 fc 00 37 fc 00     .7D..;. .....7..
    2558:	00 fd 00 00 71 02 00 68 10 37 30 0a 00 61 04 00     ....q..h.70..a..
    2568:	fd 00 00 fc 00 37 fc 00 00 6b 04 20 fd 80 02 fc     .....7...k. ....
    2578:	00 37 44 0c 00 69 04 00 fd 80 02 fc 00 37 fc 00     .7D..i.......7..
    2588:	00 63 04 20 75 02 00 68 06 37 30 0a 00 39 04 00     .c. u..h.70..9..
    2598:	fd 00 00 fc 00 37 fc 00 00 6b 04 20 fd 80 02 fc     .....7...k. ....
    25a8:	00 37 44 0c 00 39 04 00 fd 00 00 fc 00 37 fc 00     .7D..9.......7..
    25b8:	00 fd 00 00 fd 80 02 68 08 37 44 0c 00 3b 04 20     .......h.7D..;. 
    25c8:	fd 80 02 fc 00 37 fc 00 00 fd 00 00 7d 02 00 fc     .....7......}...
    25d8:	00 37 44 0c 00 25 04 00 77 02 1e fc 00 37 44 0c     .7D..%..w....7D.
    25e8:	00 3b 04 20 84 c2 0f fc 00 37 4c 0e 00 39 04 00     .;. .....7L..9..
    25f8:	fc c0 00 fc 00 37 fc 00 00 fd 00 00 fd 00 00 fc     .....7..........
    2608:	00 37 44 0c 00 27 04 20 fd 00 00 fc 00 37 fc 00     .7D..'. .....7..
    2618:	00 fd 00 00 7c c2 0f 68 10 37 30 0a 00 41 04 00     ....|..h.70..A..
    2628:	fd 00 00 fc 00 37 fc 00 00 3b 04 20 fd 00 00 fc     .....7...;. ....
    2638:	00 37 44 0c 00 45 04 00 fd 00 00 fc 00 37 fc 00     .7D..E.......7..
    2648:	00 43 04 20 74 c2 0f 60 06 47 30 0a 00 31 04 00     .C. t..`.G0..1..
    2658:	fd 00 00 fc 00 47 fc 00 00 47 04 20 fd 80 02 fc     .....G...G. ....
    2668:	00 47 44 0c 00 31 04 00 fd 00 00 fc 00 47 fc 00     .GD..1.......G..
    2678:	00 fd 00 00 fd 80 02 60 08 47 44 0c 00 33 04 20     .......`.GD..3. 
    2688:	fd 00 00 fc 00 47 fc 00 00 fd 00 00 fd 80 02 fc     .....G..........
    2698:	00 47 44 0c 00 31 04 00 fd 80 02 fc 00 47 44 0c     .GD..1.......GD.
    26a8:	00 33 04 20 71 02 00 fc 00 47 4c 0e 00 61 04 00     .3. q....GL..a..
    26b8:	fd 00 00 fc 00 47 fc 00 00 fd 00 00 fd 80 02 fc     .....G..........
    26c8:	00 47 44 0c 00 33 04 20 fd 00 00 fc 00 47 fc 00     .GD..3. .....G..
    26d8:	00 fd 00 00 fd 80 02 60 10 47 30 0a 00 59 04 00     .......`.G0..Y..
    26e8:	fd 00 00 fc 00 47 fc 00 00 63 04 20 fd 80 02 fc     .....G...c. ....
    26f8:	00 47 44 0c 00 61 04 00 fc 80 04 fc 00 47 fc 00     .GD..a.......G..
    2708:	00 5b 04 20 73 02 20 54 06 37 30 0a 00 25 04 00     .[. s. T.70..%..
    2718:	fd 00 00 fc 00 37 fc 00 00 63 04 20 fd 80 02 fc     .....7...c. ....
    2728:	00 37 44 0c 00 25 04 00 fd 00 00 fc 00 37 fc 00     .7D..%.......7..
    2738:	00 fd 00 00 fd 80 02 54 08 37 44 0c 00 27 04 20     .......T.7D..'. 
    2748:	fd 00 00 fc 00 37 fc 00 00 fd 00 00 fd 80 02 fc     .....7..........
    2758:	00 37 44 0c 00 25 04 00 fd 80 02 fc 00 37 44 0c     .7D..%.......7D.
    2768:	00 27 04 20 69 02 00 fc 00 37 4c 0e 00 31 04 00     .'. i....7L..1..
    2778:	fd 00 00 fc 00 37 fc 00 00 fd 00 00 fd 00 00 fc     .....7..........
    2788:	00 37 44 0c 00 27 04 20 fd 00 00 fc 00 37 fc 00     .7D..'. .....7..
    2798:	00 fd 00 00 61 02 00 54 10 37 4c 0e 00 25 04 00     ....a..T.7L..%..
    27a8:	fd 00 00 fc 00 37 fc 00 00 33 04 20 fd 00 00 fc     .....7...3. ....
    27b8:	00 37 48 0e 00 41 04 00 fd 00 00 fc 00 37 fc 00     .7H..A.......7..
    27c8:	00 27 04 20 68 c2 04 58 06 47 30 0a 00 29 04 a2     .'. h..X.G0..)..
    27d8:	fc c0 00 fc 00 47 fc 00 00 fd 00 00 fc c0 00 fc     .....G..........
    27e8:	00 47 44 0c 00 fd 80 02 fc c0 00 fc 00 47 fc 00     .GD..........G..
    27f8:	00 fd 80 02 fd 00 82 58 08 47 44 0c 00 29 04 00     .......X.GD..)..
    2808:	fd 00 00 fc 00 47 fc 00 00 fd 00 00 fd 00 00 fc     .....G..........
    2818:	00 47 44 0c 00 29 84 08 fd 00 00 fc 00 47 44 0c     .GD..).......GD.
    2828:	00 15 84 06 fd 80 02 fc 00 47 4c 0e 00 29 04 00     .........GL..)..
    2838:	fd 00 00 fc 00 47 fc 00 00 fd 00 00 fd 00 00 fc     .....G..........
    2848:	00 47 44 0c 00 31 04 00 fd 00 00 fc 00 47 fc 00     .GD..1.......G..
    2858:	00 fd 00 00 fd 80 02 58 10 47 30 0a 00 39 04 00     .......X.G0..9..
    2868:	fd 00 00 fc 00 47 fc 00 00 33 04 20 fd 00 00 fc     .....G...3. ....
    2878:	00 47 44 0c 00 29 04 00 fd 00 00 fc 00 47 fc 00     .GD..).......G..
    2888:	00 3b 04 20 fd 80 02 60 06 47 30 0a 00 31 04 00     .;. ...`.G0..1..
    2898:	fd 00 00 fc 00 47 fc 00 00 fd 00 00 fd 80 02 fc     .....G..........
    28a8:	00 47 44 0c 00 fd 80 02 fd 00 00 fc 00 47 fc 00     .GD..........G..
    28b8:	00 fd 80 02 fd 80 02 60 08 47 44 0c 00 31 04 00     .......`.GD..1..
    28c8:	fd 00 00 fc 00 47 fc 00 00 fd 00 00 fd 80 02 fc     .....G..........
    28d8:	00 47 44 0c 00 31 04 00 fd 00 00 fc 00 47 44 0c     .GD..1.......GD.
    28e8:	00 33 04 20 fd 80 02 fc 00 47 4c 0e 00 1d 04 00     .3. .....GL.....
    28f8:	fd 00 00 fc 00 47 fc 00 00 33 04 20 fd 80 02 fc     .....G...3. ....
    2908:	00 47 44 0c 00 31 84 04 fd 80 02 fc 00 47 fc 00     .GD..1.......G..
    2918:	00 39 84 02 75 02 00 60 10 47 30 0a 00 41 04 00     .9..u..`.G0..A..
    2928:	6b 02 1e fc 00 47 fc 00 00 fd 00 00 71 02 00 fc     k....G......q...
    2938:	00 47 44 0c 00 31 04 00 77 02 1e fc 00 47 fc 00     .GD..1..w....G..
    2948:	00 43 04 20 69 02 00 68 06 37 30 0a 00 39 04 00     .C. i..h.70..9..
    2958:	fd 00 00 fc 00 37 fc 00 00 fd 00 00 fd 00 00 fc     .....7..........
    2968:	00 37 44 0c 00 fd 80 02 fd 00 00 fc 00 37 fc 00     .7D..........7..
    2978:	00 fd 80 02 fd 80 02 68 08 37 44 0c 00 39 04 00     .......h.7D..9..
    2988:	fd 00 00 fc 00 37 fc 00 00 3b 04 20 fd 00 00 fc     .....7...;. ....
    2998:	00 37 44 0c 00 25 04 00 fd 00 00 fc 00 37 44 0c     .7D..%.......7D.
    29a8:	00 3b 04 20 fd 80 02 fc 00 37 4c 0e 00 39 04 00     .;. .....7L..9..
    29b8:	fd 00 00 fc 00 37 fc 00 00 fd 00 00 fd 80 02 fc     .....7..........
    29c8:	00 37 44 0c 00 fd 80 02 fd 00 00 fc 00 37 fc 00     .7D..........7..
    29d8:	00 fd 80 02 fd 80 02 68 10 37 30 0a 00 55 04 00     .......h.70..U..
    29e8:	fd 80 02 fc 00 37 fc 00 00 3b 04 20 55 02 00 fc     .....7...;. U...
    29f8:	00 37 44 0c 00 25 04 00 6b 02 1e fc 00 37 fc 00     .7D..%..k....7..
    2a08:	00 57 04 20 84 c2 1f 68 06 37 30 0a 00 39 04 00     .W. ...h.70..9..
    2a18:	fc c0 00 fc 00 37 fc 00 00 fd 00 00 fd 00 a2 fc     .....7..........
    2a28:	00 37 44 0c 00 fd 80 02 fd 00 00 fc 00 37 fc 00     .7D..........7..
    2a38:	00 fd 80 02 fd 80 02 68 08 37 44 0c 00 39 04 00     .......h.7D..9..
    2a48:	fd 00 00 fc 00 37 fc 00 00 fd 00 00 fd 80 02 fc     .....7..........
    2a58:	00 37 44 0c 00 39 84 08 fd 00 00 fc 00 37 44 0c     .7D..9.......7D.
    2a68:	00 25 84 06 fd 80 02 fc 00 37 4c 0e 00 45 04 00     .%.......7L..E..
    2a78:	fd 80 02 fc 00 37 fc 00 00 27 04 20 85 02 00 fc     .....7...'. ....
    2a88:	00 37 44 0e 00 41 04 00 87 02 1e fc 00 37 fc 00     .7D..A.......7..
    2a98:	00 47 04 20 75 02 00 68 10 37 4c 0e 00 39 04 00     .G. u..h.7L..9..
    2aa8:	87 02 1e fc 00 37 fc 00 00 43 04 20 71 02 00 fc     .....7...C. q...
    2ab8:	00 37 48 0e 00 31 04 00 77 02 1e fc 00 37 fe c0     .7H..1..w....7..
    2ac8:	03 3b 04 20 00 00 00 00 81 81 81 81 81 93 81 81     .;. ............
    2ad8:	81 81 81 81 7f 7f 71 7f 7f 7f 6f 6f 54 54 35 35     ......q...ooTT55
    2ae8:	0c 06 04 02 02 a7 a1 8e 84 84 84 84 84 84 84 84     ................
    2af8:	84 84 84 83 83 b8 83 81 81 81 81 81 81 81 81 81     ................
    2b08:	81 81 b9 81 81 81 81 81 81 81 81 81 81 81 81 81     ................
    2b18:	81 bd 81 81 81 83 83 83 83 83 83 83 83 83 83 78     ...............x
    2b28:	78 78 78 5d 5d 7b 7b 7b 5c 5c 5c 7a 7b 7b 7b 7b     xxx]]{{{\\\z{{{{
    2b38:	7b 7b 7b 7b 7b 7b 7b 76 6f 6f 69 69 62 62 5b 5b     {{{{{{{vooiibb[[
    2b48:	54 54 4c 4c 45 45 3d 3d 35 35 2d 2d 25 25 1d 1d     TTLLEE==55--%%..
    2b58:	16 16 0f 0f 08 08 01 01 f9 f9 f3 f3 00 00 b3 b3     ................
    2b68:	b3 cc b3 b3 46 46 46 34 28 12 00 00 d1 d1 d1 eb     ....FFF4(.......
    2b78:	f3 f9 09 3a 1b 1f 18 0a 00 00 00 02 1e 00 fe f0     ...:............
    2b88:	f4 06 14 f0 ee f2 04 10 ee 08 0c f8 f0 ec ce 20     ............... 
    2b98:	00 da 20 cc 06 d0 16 e8 f2 e2 00 80 7e 80 2e 9e     .. .........~...
    2ba8:	7f 8e 7f 40 3e 7f 56 38 f4 20 fe 10 a4 de 80 3e     ...@>.V8. .....>
    2bb8:	80 7f 80 80 7f 8a e8 80 80 7f 80 3e 80 7e 1e 80     ...........>.~..
    2bc8:	80 7f 80 ba 80 80 80 80 be 80 de 90 80 80 be 80     ................
    2bd8:	ee 80 d8 80 d8 9e e2 c4 d6 e4 de f8 10 4e fe 7f     .............N..
    2be8:	5e 60 66 7f 74 7f 7f 7f 7f 7f 7f 7f 7f 7f 7f 7f     ^`f.t...........
    2bf8:	7f 7f 7f 7f 7f 7f 7f 7f 7f 7f 7f 7f 7f 7f 7f 7f     ................
    2c08:	7f 7f 7f 7f 7f 7f 7f 7f 7f 7f 7f 50 7f 7f 76 6a     ...........P..vj
    2c18:	40 1e 64 ec f6 b0 ba e6 80 aa 8a 80 80 80 80 80     @.d.............
    2c28:	80 80 80 80 80 80 80 80 80 80 80 80 80 80 80 80     ................
    2c38:	80 80 80 80 80 80 80 80 80 80 80 80 80 80 80 80     ................
    2c48:	80 80 80 80 80 80 80 80 80 80 80 80 80 80 80 80     ................
    2c58:	80 80 80 80 88 80 80 80 80 8e 80 a2 ea ae f8 ee     ................
    2c68:	e6 fe 06 2c 24 46 30 7f 56 52 7f 72 7f 7f 7f 7f     ...,$F0.VR.r....
    2c78:	7f 7f 7f 7f 7f 7f 7f 7f 7f 7f 7f 7f 7f 7f 7f 7f     ................
    2c88:	7f 7f 7f 7f 7f 7f 7f 7f 7f 7f 7f 7f 7f 7f 7f 7f     ................
    2c98:	7f 7f 7f 7f 7f 7f 7f 7f 7f 7f 7f 7f 7f 7f 7f 7f     ................
    2ca8:	7f 7f 7f 7f 7f 7f 7f 7f 7f 7f 7f 7f 7f 7f 7f 7f     ................
    2cb8:	72 7a 7e 60 5c 20 40 34 16 10 fa e8 ca e8 d6 c8     rz~`\ @4........
    2cc8:	bc b0 8a 9a 88 80 80 80 80 80 80 80 80 80 80 80     ................
    2cd8:	80 80 80 80 80 80 80 80 80 80 80 80 80 80 80 80     ................
    2ce8:	80 80 80 80 80 80 80 80 80 80 80 80 80 80 80 80     ................
    2cf8:	80 80 80 80 80 80 80 80 80 80 80 80 80 80 80 80     ................
    2d08:	80 80 80 80 80 80 80 80 80 80 80 86 86 90 a6 9c     ................
    2d18:	c0 aa c8 c6 c8 d8 da ee f0 14 06 24 1e 0c 28 46     ...........$..(F
    2d28:	40 44 5e 66 52 54 7e 7f 70 7f 7f 7f 7f 7f 7f 7f     @D^fRT~.p.......
    2d38:	7f 7f 7f 7f 7f 7f 7f 7f 7f 7f 7f 7f 7f 7f 7f 7f     ................
    2d48:	7f 7f 7f 7f 7f 7f 7f 7f 7f 7f 7f 7f 7f 7f 7f 7f     ................
    2d58:	7f 7f 7f 7f 7f 7f 7f 7f 7f 7f 7f 7f 7f 7f 7f 7f     ................
    2d68:	7f 7f 7f 7f 7c 6a 74 78 62 58 66 44 70 52 52 56     ....|jtxbXfDpRRV
    2d78:	4e 30 5e 3e 38 2c 2e 30 24 0c 14 02 1a ea 0e 02     N0^>8,.0$.......
    2d88:	f6 f0 f6 e8 f2 e8 f0 e0 d4 da c8 ce c0 ba c8 bc     ................
    2d98:	b2 be b0 aa a2 98 aa a2 9c a0 84 9c 96 90 8e 9e     ................
    2da8:	80 82 86 8c 80 80 80 80 80 80 80 84 80 80 80 86     ................
    2db8:	80 80 80 80 80 80 80 80 80 86 8e 80 92 82 8c a0     ................
    2dc8:	98 94 96 9c ac 90 9a aa ae b0 b2 b0 c4 ba c4 c2     ................
    2dd8:	be d0 ce d8 d4 d0 dc e4 d4 ec ec e8 e6 fa dc fe     ................
    2de8:	f2 f2 fc f8 02 06 08 02 00 0e 06 06 00 04 0a 12     ................
    2df8:	08 16 06 0a 0c 16 10 16 1a 08 1e 20 12 0a 0a 16     ........... ....
    2e08:	10 10 10 04 06 1c 0e 18 0c 14 06 0c 08 0a 12 fe     ................
    2e18:	0e 04 10 12 06 10 0e 12 10 1e 16 16 04 16 10 14     ................
    2e28:	14 0e 20 12 0a 16 16 1c 10 20 22 1a 28 1a 22 1a     .. ...... ".(.".
    2e38:	26 1a 22 28 28 1c 30 1c 2a 28 24 26 28 2c 2a 2c     &."((.0.*($&(,*,
    2e48:	2e 36 32 28 34 2c 24 2a 28 34 24 2a 28 30 20 22     .62(4,$*(4$*(0 "
    2e58:	22 24 22 20 28 16 22 1c 26 1a 1a 1c 0e 16 0c 14     "$" (.".&.......
    2e68:	0e 16 08 0a 0e 08 0c 00 02 fe fa fe f8 ee f8 fc     ................
    2e78:	ea f6 ee f6 ec e2 e4 e8 e2 e4 dc ee d6 e2 d6 e2     ................
    2e88:	da dc d8 d6 de d0 ce dc d4 d4 d6 d4 d8 d8 d6 d2     ................
    2e98:	da d4 d6 dc d2 d4 dc e2 d0 e2 e2 e6 e4 e0 e6 ea     ................
    2ea8:	de e4 e6 dc ee e8 e4 f0 e8 ec e8 ea f2 ec ee e8     ................
    2eb8:	e6 f0 f4 e6 f2 e6 fa f8 f0 ee fe f8 fc f8 fe fe     ................
    2ec8:	fe 08 fe 0c 06 04 fc 06 10 0c 08 10 02 0a 08 08     ................
    2ed8:	0a 0a 14 14 0c 10 12 0e 06 0e 18 14 16 12 16 18     ................
    2ee8:	18 0e 18 0e 14 10 18 1a 14 12 10 0c 12 20 0a 14     ............. ..
    2ef8:	0e 0e 12 14 10 12 0e 12 10 0a 0c 08 0c 08 10 02     ................
    2f08:	0a 0e 0a 0e 10 0c 14 06 08 02 0e 00 06 fc 0e 00     ................
    2f18:	06 06 10 fe fe 12 fa 02 0a 00 fc fe 06 fe 04 fe     ................
    2f28:	0a fa 08 02 00 02 00 f8 04 fc fa 02 fc 02 fe 00     ................
    2f38:	00 fc 06 fe 06 fe 00 02 00 00 02 00 02 00 f6 00     ................
    2f48:	00 fa f6 08 fe 04 fa 04 f8 fe 02 fc f6 fc f8 fc     ................
    2f58:	fc fc fc 06 00 00 00 00 00 00 00 00 16 f1 f8 0c     ................
    2f68:	f1 f4 04 09 f4 27 ee df 00 e6 df 00 27 2c df cb     .....'......',..
    2f78:	33 f1 10 f4 d6 1e f4 09 f1 04 e6 16 fb 36 c7 1a     3............6..
    2f88:	13 c7 ba 0c 04 00 00 df 21 36 e6 00 2e e6 16 00     ........!6......
    2f98:	f8 0c f1 f1 fb 02 f4 00 00 00 f1 16 00 0c 10 f4     ................
    2fa8:	04 f4 09 00 00 27 39 cb 00 e3 00 00 e3 ba 21 00     .....'9.......!.
    2fb8:	f1 00 00 e6 1a 00 f8 f8 00 00 00 fb 27 cb ee 16     ............'...
    2fc8:	e6 02 04 df 2e 02 f1 1e 39 f4 04 00 f1 00 00 00     ........9.......
    2fd8:	ea f1 00 16 1a f1 e6 02 00 c7 00 00 e6 f8 d6 48     ...............H
    2fe8:	21 f1 0c 00 f4 ee 00 00 e6 16 00 e6 f4 02 df 39     !..............9
    2ff8:	df 02 f1 00 00 00 10 f1 ee 16 09 00 f8 e6 1a 00     ................
    3008:	00 1e 27 00 00 00 f8 10 c7 f1 00 00 0c 00 16 0c     ..'.............
    3018:	1a 00 16 f8 f1 f1 0c 39 d8 00 f1 00 39 0c 02 21     .......9....9..!
    3028:	f4 39 d6 1e f1 e6 f1 df f8 df 0c f1 02 ee 27 e6     .9............'.
    3038:	27 e6 fb 00 00 fb cb 36 df f1 13 16 f1 10 13 f1     '......6........
    3048:	00 09 04 04 f4 00 00 16 f8 f8 00 1e 10 04 02 00     ................
    3058:	00 ea 0c 00 00 10 f4 2e 10 04 00 f1 16 df 0c 09     ................
    3068:	00 f4 1e 02 10 00 02 1e ba e3 04 04 ee 10 00 00     ................
    3078:	f8 f1 27 0c 00 02 e6 f8 df 1e 00 00 ea 27 e6 00     ..'..........'..
    3088:	1e 0c 09 04 0c e6 df 36 09 00 00 00 0c 27 e3 00     .......6.....'..
    3098:	00 00 0c f8 00 00 00 f1 00 f1 16 10 00 0c 0c 00     ................
    30a8:	13 ce 33 02 13 f1 0c 00 00 04 10 df f4 00 f8 00     ..3.............
    30b8:	ea df 00 f4 f8 00 df 16 00 00 00 1e df df 0c 04     ................
    30c8:	00 f1 00 00 13 f4 fb f4 f1 e6 00 00 00 04 df 36     ...............6
    30d8:	1e f1 16 0c 00 09 00 04 00 09 02 ee f1 fb 10 02     ................
    30e8:	00 00 1e 16 e6 1e f1 1a f1 00 10 10 fb 00 00 00     ................
    30f8:	00 80 80 80 00 80 80 80 80 80 80 80 80 94 80 a2     ................
    3108:	fe 7f 7f 62 76 7f 46 7f 7f 7f 7f 7f 7f 7f 7f 7f     ...bv.F.........
    3118:	7f 7f 7f 7f 7f 7f 6c 7f 1a 80 b2 a8 9e 80 80 80     ......l.........
    3128:	80 80 80 80 80 80 80 80 80 80 80 ba b2 bc 40 16     ..............@.
    3138:	4a 44 7f 6c 7f 7f 7f 7f 7f 6c 7c 7f 7f 7f 7f 1a     JD.l.....l|.....
    3148:	68 7f e2 80 7f fe 0a f4 c8 b0 b0 80 80 80 80 80     h...............
    3158:	80 80 80 80 80 80 80 e2 80 94 80 b2 80 94 80 fe     ................
    3168:	d4 b0 2c 7f 6c 5a 7f 68 7f 7f 7f 7f 7f 7f 7f 7f     ..,.lZ.h........
    3178:	7f 7f 7f 7f 7f 6c b0 fe 7f 00 80 fe 80 de 80 80     .....l..........
    3188:	80 80 80 80 80 80 80 80 80 98 80 80 80 80 80 f0     ................
    3198:	24 98 68 a8 fe 7f 7f 7f 7f 7f 7f 76 40 7f 50 7f     $.h........v@.P.
    31a8:	7f 7f 36 2c 7f 44 7a 3c 46 b2 00 b0 80 90 80 80     ..6,.Dz<F.......
    31b8:	80 80 80 84 bc b0 80 80 9e 90 a2 80 fe 94 9a e2     ................
    31c8:	e2 a8 e2 4e d2 7f 80 7f 7f 36 7f 62 7f 7f 68 7f     ...N.....6.b..h.
    31d8:	7f 7f 68 7f 7a 7f 0c 7f 6c 1a b2 c8 7f 6c 80 de     ..h.z...l....l..
    31e8:	16 80 e2 b6 80 1a 94 80 80 ca 80 1a 90 80 90 94     ................
    31f8:	80 80 00 80 80 72 32 1a 4a 62 5a 50 3c 6c fe 7f     .....r2.JbZP<l..
    3208:	50 7f 7f 7f 7f 7f 7f 58 7f f0 7f e6 16 00 1a b0     P......X........
    3218:	ba 0c 90 b6 ea 80 b0 80 80 8a 80 80 94 80 80 d4     ................
    3228:	80 4a 80 ca ea 80 80 e2 16 80 7f 32 10 06 4e fe     .J.........2..N.
    3238:	7f 1e f0 7f 7f f4 7f 7f 50 e6 14 f0 7f 00 00 9e     ........P.......
    3248:	00 f4 06 e6 8a bc b0 fe 80 f0 80 b0 bc d4 36 8a     ..............6.
    3258:	c4 90 98 80 94 ac 98 ac 24 ca e2 ca 80 f6 02 f0     ........$.......
    3268:	32 22 7f 90 7f 4a 10 ba 7f ba 7f ca 2c 5e 36 fe     2"...J......,^6.
    3278:	50 28 e2 0a e2 2c 16 00 44 ac d2 00 c8 e2 d8 b0     P(...,..D.......
    3288:	80 94 c8 80 80 a2 80 80 80 a2 80 94 80 24 98 e2     .............$..
    3298:	a6 1a 28 0c fe 14 7f 32 ec 7f 68 7f 32 6c 68 7f     ..(....2..h.2lh.
    32a8:	66 00 4e 0c 00 32 3c 1a 16 de 36 3c b0 d2 36 ca     f.N..2<...6<..6.
    32b8:	8a ac ce c8 80 ea 80 a8 80 b6 00 ea 94 c8 ac 94     ................
    32c8:	b6 a6 e2 d8 ca a8 f4 3c a2 4e fe 00 36 10 06 5a     .......<.N..6..Z
    32d8:	22 22 dc 5e 1e 36 6c 68 1a 76 50 0a 22 22 38 36     "".^.6lh.vP.""86
    32e8:	00 68 1e ca fe f4 24 ac f0 80 e2 a2 80 90 80 1a     .h....$.........
    32f8:	80 80 f6 84 c4 c0 8e 0a ac 8a dc f0 a8 c0 2c e2     ..............,.
    3308:	f0 02 14 80 02 22 2c 5e d2 44 f0 00 3c b6 5a 00     .....",^.D..<.Z.
    3318:	ec 40 00 f6 0c 22 c0 e6 e2 80 24 b6 84 00 d8 d2     .@..."....$.....
    3328:	c0 9e ea 9e f6 98 1e a2 c8 14 dc a8 de e6 0a ac     ................
    3338:	e6 00 00 ec 4e 00 f6 c4 36 24 d8 06 06 16 e6 d2     ....N...6$......
    3348:	32 06 fe fe 00 38 1e fe 00 f4 1a 28 ec 0c ec f6     2....8.....(....
    3358:	d2 bc d4 f0 ca c8 ca c4 9a 10 b0 94 c0 ba ca f0     ................
    3368:	c0 f0 b2 00 c8 e6 b6 fe ca d8 f0 14 e2 ea 38 de     ..............8.
    3378:	06 fe 40 24 00 4e e6 2e 2e 00 32 22 24 40 32 fe     ..@$.N....2"$@2.
    3388:	36 16 16 ea ce d2 06 98 00 00 b3 e5 e6 20 f5 c5     6............ ..
    3398:	c0 ae ab a1 e1 98                                   ......

0000339e <__ctors_end>:
    339e:	11 24       	eor	r1, r1
    33a0:	1f be       	out	0x3f, r1	; 63
    33a2:	cf ef       	ldi	r28, 0xFF	; 255
    33a4:	d8 e0       	ldi	r29, 0x08	; 8
    33a6:	de bf       	out	0x3e, r29	; 62
    33a8:	cd bf       	out	0x3d, r28	; 61

000033aa <__do_copy_data>:
    33aa:	11 e0       	ldi	r17, 0x01	; 1
    33ac:	a0 e0       	ldi	r26, 0x00	; 0
    33ae:	b1 e0       	ldi	r27, 0x01	; 1
    33b0:	e0 e0       	ldi	r30, 0x00	; 0
    33b2:	fe e5       	ldi	r31, 0x5E	; 94
    33b4:	02 c0       	rjmp	.+4      	; 0x33ba <__do_copy_data+0x10>
    33b6:	05 90       	lpm	r0, Z+
    33b8:	0d 92       	st	X+, r0
    33ba:	ae 3b       	cpi	r26, 0xBE	; 190
    33bc:	b1 07       	cpc	r27, r17
    33be:	d9 f7       	brne	.-10     	; 0x33b6 <__do_copy_data+0xc>

000033c0 <__do_clear_bss>:
    33c0:	16 e0       	ldi	r17, 0x06	; 6
    33c2:	ae eb       	ldi	r26, 0xBE	; 190
    33c4:	b1 e0       	ldi	r27, 0x01	; 1
    33c6:	01 c0       	rjmp	.+2      	; 0x33ca <.do_clear_bss_start>

000033c8 <.do_clear_bss_loop>:
    33c8:	1d 92       	st	X+, r1

000033ca <.do_clear_bss_start>:
    33ca:	a0 31       	cpi	r26, 0x10	; 16
    33cc:	b1 07       	cpc	r27, r17
    33ce:	e1 f7       	brne	.-8      	; 0x33c8 <.do_clear_bss_loop>
    33d0:	0e 94 a5 2e 	call	0x5d4a	; 0x5d4a <main>
    33d4:	0c 94 fe 2e 	jmp	0x5dfc	; 0x5dfc <_exit>

000033d8 <__bad_interrupt>:
    33d8:	0c 94 00 00 	jmp	0	; 0x0 <__vectors>

000033dc <efx0_row>:
    33dc:	dc 01       	movw	r26, r24
    33de:	ed 91       	ld	r30, X+
    33e0:	fc 91       	ld	r31, X
    33e2:	11 97       	sbiw	r26, 0x01	; 1
    33e4:	10 86       	std	Z+8, r1	; 0x08
    33e6:	08 95       	ret

000033e8 <efx3_row>:
    33e8:	cf 93       	push	r28
    33ea:	df 93       	push	r29
    33ec:	dc 01       	movw	r26, r24
    33ee:	14 96       	adiw	r26, 0x04	; 4
    33f0:	8c 91       	ld	r24, X
    33f2:	14 97       	sbiw	r26, 0x04	; 4
    33f4:	8f 33       	cpi	r24, 0x3F	; 63
    33f6:	19 f1       	breq	.+70     	; 0x343e <efx3_row+0x56>
    33f8:	ed 91       	ld	r30, X+
    33fa:	fc 91       	ld	r31, X
    33fc:	11 97       	sbiw	r26, 0x01	; 1
    33fe:	c8 2f       	mov	r28, r24
    3400:	d0 e0       	ldi	r29, 0x00	; 0
    3402:	cc 0f       	add	r28, r28
    3404:	dd 1f       	adc	r29, r29
    3406:	ce 5b       	subi	r28, 0xBE	; 190
    3408:	de 4f       	sbci	r29, 0xFE	; 254
    340a:	88 81       	ld	r24, Y
    340c:	99 81       	ldd	r25, Y+1	; 0x01
    340e:	94 87       	std	Z+12, r25	; 0x0c
    3410:	83 87       	std	Z+11, r24	; 0x0b
    3412:	18 96       	adiw	r26, 0x08	; 8
    3414:	8c 91       	ld	r24, X
    3416:	18 97       	sbiw	r26, 0x08	; 8
    3418:	8f 7e       	andi	r24, 0xEF	; 239
    341a:	18 96       	adiw	r26, 0x08	; 8
    341c:	8c 93       	st	X, r24
    341e:	18 97       	sbiw	r26, 0x08	; 8
    3420:	85 81       	ldd	r24, Z+5	; 0x05
    3422:	88 23       	and	r24, r24
    3424:	21 f0       	breq	.+8      	; 0x342e <efx3_row+0x46>
    3426:	82 87       	std	Z+10, r24	; 0x0a
    3428:	ed 91       	ld	r30, X+
    342a:	fc 91       	ld	r31, X
    342c:	11 97       	sbiw	r26, 0x01	; 1
    342e:	80 81       	ld	r24, Z
    3430:	8f 3f       	cpi	r24, 0xFF	; 255
    3432:	11 f4       	brne	.+4      	; 0x3438 <efx3_row+0x50>
    3434:	14 82       	std	Z+4, r1	; 0x04
    3436:	15 82       	std	Z+5, r1	; 0x05
    3438:	df 91       	pop	r29
    343a:	cf 91       	pop	r28
    343c:	08 95       	ret
    343e:	ed 91       	ld	r30, X+
    3440:	fc 91       	ld	r31, X
    3442:	11 97       	sbiw	r26, 0x01	; 1
    3444:	ed cf       	rjmp	.-38     	; 0x3420 <efx3_row+0x38>

00003446 <efx4_row>:
    3446:	fc 01       	movw	r30, r24
    3448:	87 81       	ldd	r24, Z+7	; 0x07
    344a:	98 2f       	mov	r25, r24
    344c:	92 95       	swap	r25
    344e:	9f 70       	andi	r25, 0x0F	; 15
    3450:	8f 70       	andi	r24, 0x0F	; 15
    3452:	99 23       	and	r25, r25
    3454:	29 f0       	breq	.+10     	; 0x3460 <efx4_row+0x1a>
    3456:	a0 81       	ld	r26, Z
    3458:	b1 81       	ldd	r27, Z+1	; 0x01
    345a:	1f 96       	adiw	r26, 0x0f	; 15
    345c:	9c 93       	st	X, r25
    345e:	1f 97       	sbiw	r26, 0x0f	; 15
    3460:	88 23       	and	r24, r24
    3462:	21 f0       	breq	.+8      	; 0x346c <efx4_row+0x26>
    3464:	a0 81       	ld	r26, Z
    3466:	b1 81       	ldd	r27, Z+1	; 0x01
    3468:	50 96       	adiw	r26, 0x10	; 16
    346a:	8c 93       	st	X, r24
    346c:	a0 81       	ld	r26, Z
    346e:	b1 81       	ldd	r27, Z+1	; 0x01
    3470:	51 96       	adiw	r26, 0x11	; 17
    3472:	8c 91       	ld	r24, X
    3474:	51 97       	sbiw	r26, 0x11	; 17
    3476:	84 30       	cpi	r24, 0x04	; 4
    3478:	30 f4       	brcc	.+12     	; 0x3486 <efx4_row+0x40>
    347a:	84 81       	ldd	r24, Z+4	; 0x04
    347c:	8f 33       	cpi	r24, 0x3F	; 63
    347e:	19 f0       	breq	.+6      	; 0x3486 <efx4_row+0x40>
    3480:	52 96       	adiw	r26, 0x12	; 18
    3482:	1c 92       	st	X, r1
    3484:	52 97       	sbiw	r26, 0x12	; 18
    3486:	08 95       	ret

00003488 <efx8_row>:
    3488:	fc 01       	movw	r30, r24
    348a:	a0 81       	ld	r26, Z
    348c:	b1 81       	ldd	r27, Z+1	; 0x01
    348e:	15 96       	adiw	r26, 0x05	; 5
    3490:	8c 91       	ld	r24, X
    3492:	15 97       	sbiw	r26, 0x05	; 5
    3494:	12 96       	adiw	r26, 0x02	; 2
    3496:	8c 93       	st	X, r24
    3498:	12 97       	sbiw	r26, 0x02	; 2
    349a:	80 85       	ldd	r24, Z+8	; 0x08
    349c:	88 60       	ori	r24, 0x08	; 8
    349e:	80 87       	std	Z+8, r24	; 0x08
    34a0:	08 95       	ret

000034a2 <efxB_row>:
    34a2:	dc 01       	movw	r26, r24
    34a4:	ed 91       	ld	r30, X+
    34a6:	fc 91       	ld	r31, X
    34a8:	11 97       	sbiw	r26, 0x01	; 1
    34aa:	85 81       	ldd	r24, Z+5	; 0x05
    34ac:	80 93 b6 02 	sts	0x02B6, r24
    34b0:	80 e4       	ldi	r24, 0x40	; 64
    34b2:	80 93 80 05 	sts	0x0580, r24
    34b6:	10 92 b9 02 	sts	0x02B9, r1
    34ba:	80 91 83 05 	lds	r24, 0x0583
    34be:	82 60       	ori	r24, 0x02	; 2
    34c0:	80 93 83 05 	sts	0x0583, r24
    34c4:	08 95       	ret

000034c6 <efxC_row>:
    34c6:	fc 01       	movw	r30, r24
    34c8:	a0 81       	ld	r26, Z
    34ca:	b1 81       	ldd	r27, Z+1	; 0x01
    34cc:	87 81       	ldd	r24, Z+7	; 0x07
    34ce:	11 96       	adiw	r26, 0x01	; 1
    34d0:	8c 93       	st	X, r24
    34d2:	11 97       	sbiw	r26, 0x01	; 1
    34d4:	80 85       	ldd	r24, Z+8	; 0x08
    34d6:	81 60       	ori	r24, 0x01	; 1
    34d8:	80 87       	std	Z+8, r24	; 0x08
    34da:	08 95       	ret

000034dc <efxD_row>:
    34dc:	dc 01       	movw	r26, r24
    34de:	ed 91       	ld	r30, X+
    34e0:	fc 91       	ld	r31, X
    34e2:	11 97       	sbiw	r26, 0x01	; 1
    34e4:	25 81       	ldd	r18, Z+5	; 0x05
    34e6:	92 2f       	mov	r25, r18
    34e8:	92 95       	swap	r25
    34ea:	9f 70       	andi	r25, 0x0F	; 15
    34ec:	99 0f       	add	r25, r25
    34ee:	89 2f       	mov	r24, r25
    34f0:	88 0f       	add	r24, r24
    34f2:	88 0f       	add	r24, r24
    34f4:	89 0f       	add	r24, r25
    34f6:	2f 70       	andi	r18, 0x0F	; 15
    34f8:	82 0f       	add	r24, r18
    34fa:	80 93 b9 02 	sts	0x02B9, r24
    34fe:	20 91 83 05 	lds	r18, 0x0583
    3502:	82 2f       	mov	r24, r18
    3504:	90 e0       	ldi	r25, 0x00	; 0
    3506:	80 95       	com	r24
    3508:	90 95       	com	r25
    350a:	83 70       	andi	r24, 0x03	; 3
    350c:	90 70       	andi	r25, 0x00	; 0
    350e:	00 97       	sbiw	r24, 0x00	; 0
    3510:	41 f0       	breq	.+16     	; 0x3522 <efxD_row+0x46>
    3512:	80 e4       	ldi	r24, 0x40	; 64
    3514:	80 93 80 05 	sts	0x0580, r24
    3518:	80 91 cd 02 	lds	r24, 0x02CD
    351c:	8f 5f       	subi	r24, 0xFF	; 255
    351e:	80 93 b6 02 	sts	0x02B6, r24
    3522:	21 60       	ori	r18, 0x01	; 1
    3524:	20 93 83 05 	sts	0x0583, r18
    3528:	08 95       	ret

0000352a <efxE_row>:
    352a:	dc 01       	movw	r26, r24
    352c:	ed 91       	ld	r30, X+
    352e:	fc 91       	ld	r31, X
    3530:	11 97       	sbiw	r26, 0x01	; 1
    3532:	85 81       	ldd	r24, Z+5	; 0x05
    3534:	28 2f       	mov	r18, r24
    3536:	2f 70       	andi	r18, 0x0F	; 15
    3538:	82 95       	swap	r24
    353a:	8f 70       	andi	r24, 0x0F	; 15
    353c:	85 30       	cpi	r24, 0x05	; 5
    353e:	09 f4       	brne	.+2      	; 0x3542 <efxE_row+0x18>
    3540:	60 c0       	rjmp	.+192    	; 0x3602 <efxE_row+0xd8>
    3542:	86 30       	cpi	r24, 0x06	; 6
    3544:	60 f0       	brcs	.+24     	; 0x355e <efxE_row+0x34>
    3546:	89 30       	cpi	r24, 0x09	; 9
    3548:	09 f4       	brne	.+2      	; 0x354c <efxE_row+0x22>
    354a:	69 c0       	rjmp	.+210    	; 0x361e <efxE_row+0xf4>
    354c:	8a 30       	cpi	r24, 0x0A	; 10
    354e:	30 f1       	brcs	.+76     	; 0x359c <efxE_row+0x72>
    3550:	8a 30       	cpi	r24, 0x0A	; 10
    3552:	09 f4       	brne	.+2      	; 0x3556 <efxE_row+0x2c>
    3554:	66 c0       	rjmp	.+204    	; 0x3622 <efxE_row+0xf8>
    3556:	8b 30       	cpi	r24, 0x0B	; 11
    3558:	09 f4       	brne	.+2      	; 0x355c <efxE_row+0x32>
    355a:	42 c0       	rjmp	.+132    	; 0x35e0 <efxE_row+0xb6>
    355c:	08 95       	ret
    355e:	82 30       	cpi	r24, 0x02	; 2
    3560:	09 f4       	brne	.+2      	; 0x3564 <efxE_row+0x3a>
    3562:	71 c0       	rjmp	.+226    	; 0x3646 <efxE_row+0x11c>
    3564:	84 30       	cpi	r24, 0x04	; 4
    3566:	b9 f1       	breq	.+110    	; 0x35d6 <efxE_row+0xac>
    3568:	81 30       	cpi	r24, 0x01	; 1
    356a:	c1 f7       	brne	.-16     	; 0x355c <efxE_row+0x32>
    356c:	86 81       	ldd	r24, Z+6	; 0x06
    356e:	97 81       	ldd	r25, Z+7	; 0x07
    3570:	82 0f       	add	r24, r18
    3572:	91 1d       	adc	r25, r1
    3574:	23 e0       	ldi	r18, 0x03	; 3
    3576:	89 35       	cpi	r24, 0x59	; 89
    3578:	92 07       	cpc	r25, r18
    357a:	0c f0       	brlt	.+2      	; 0x357e <efxE_row+0x54>
    357c:	6d c0       	rjmp	.+218    	; 0x3658 <efxE_row+0x12e>
    357e:	81 37       	cpi	r24, 0x71	; 113
    3580:	91 05       	cpc	r25, r1
    3582:	14 f4       	brge	.+4      	; 0x3588 <efxE_row+0x5e>
    3584:	81 e7       	ldi	r24, 0x71	; 113
    3586:	90 e0       	ldi	r25, 0x00	; 0
    3588:	97 83       	std	Z+7, r25	; 0x07
    358a:	86 83       	std	Z+6, r24	; 0x06
    358c:	18 96       	adiw	r26, 0x08	; 8
    358e:	8c 91       	ld	r24, X
    3590:	18 97       	sbiw	r26, 0x08	; 8
    3592:	82 60       	ori	r24, 0x02	; 2
    3594:	18 96       	adiw	r26, 0x08	; 8
    3596:	8c 93       	st	X, r24
    3598:	18 97       	sbiw	r26, 0x08	; 8
    359a:	08 95       	ret
    359c:	86 30       	cpi	r24, 0x06	; 6
    359e:	f1 f6       	brne	.-68     	; 0x355c <efxE_row+0x32>
    35a0:	22 23       	and	r18, r18
    35a2:	09 f4       	brne	.+2      	; 0x35a6 <efxE_row+0x7c>
    35a4:	60 c0       	rjmp	.+192    	; 0x3666 <efxE_row+0x13c>
    35a6:	86 85       	ldd	r24, Z+14	; 0x0e
    35a8:	88 23       	and	r24, r24
    35aa:	09 f4       	brne	.+2      	; 0x35ae <efxE_row+0x84>
    35ac:	5a c0       	rjmp	.+180    	; 0x3662 <efxE_row+0x138>
    35ae:	81 50       	subi	r24, 0x01	; 1
    35b0:	86 87       	std	Z+14, r24	; 0x0e
    35b2:	ed 91       	ld	r30, X+
    35b4:	fc 91       	ld	r31, X
    35b6:	11 97       	sbiw	r26, 0x01	; 1
    35b8:	86 85       	ldd	r24, Z+14	; 0x0e
    35ba:	88 23       	and	r24, r24
    35bc:	79 f2       	breq	.-98     	; 0x355c <efxE_row+0x32>
    35be:	85 85       	ldd	r24, Z+13	; 0x0d
    35c0:	81 50       	subi	r24, 0x01	; 1
    35c2:	80 93 b9 02 	sts	0x02B9, r24
    35c6:	80 e4       	ldi	r24, 0x40	; 64
    35c8:	80 93 80 05 	sts	0x0580, r24
    35cc:	80 91 cd 02 	lds	r24, 0x02CD
    35d0:	80 93 b6 02 	sts	0x02B6, r24
    35d4:	08 95       	ret
    35d6:	28 30       	cpi	r18, 0x08	; 8
    35d8:	08 f0       	brcs	.+2      	; 0x35dc <efxE_row+0xb2>
    35da:	41 c0       	rjmp	.+130    	; 0x365e <efxE_row+0x134>
    35dc:	21 8b       	std	Z+17, r18	; 0x11
    35de:	08 95       	ret
    35e0:	81 81       	ldd	r24, Z+1	; 0x01
    35e2:	82 1b       	sub	r24, r18
    35e4:	81 83       	std	Z+1, r24	; 0x01
    35e6:	80 34       	cpi	r24, 0x40	; 64
    35e8:	24 f0       	brlt	.+8      	; 0x35f2 <efxE_row+0xc8>
    35ea:	ed 91       	ld	r30, X+
    35ec:	fc 91       	ld	r31, X
    35ee:	11 97       	sbiw	r26, 0x01	; 1
    35f0:	11 82       	std	Z+1, r1	; 0x01
    35f2:	18 96       	adiw	r26, 0x08	; 8
    35f4:	8c 91       	ld	r24, X
    35f6:	18 97       	sbiw	r26, 0x08	; 8
    35f8:	81 60       	ori	r24, 0x01	; 1
    35fa:	18 96       	adiw	r26, 0x08	; 8
    35fc:	8c 93       	st	X, r24
    35fe:	18 97       	sbiw	r26, 0x08	; 8
    3600:	08 95       	ret
    3602:	16 96       	adiw	r26, 0x06	; 6
    3604:	ec 91       	ld	r30, X
    3606:	16 97       	sbiw	r26, 0x06	; 6
    3608:	f0 e0       	ldi	r31, 0x00	; 0
    360a:	ee 0f       	add	r30, r30
    360c:	ff 1f       	adc	r31, r31
    360e:	ee 0f       	add	r30, r30
    3610:	ff 1f       	adc	r31, r31
    3612:	ee 0f       	add	r30, r30
    3614:	ff 1f       	adc	r31, r31
    3616:	e2 54       	subi	r30, 0x42	; 66
    3618:	fe 4f       	sbci	r31, 0xFE	; 254
    361a:	22 83       	std	Z+2, r18	; 0x02
    361c:	08 95       	ret
    361e:	11 86       	std	Z+9, r1	; 0x09
    3620:	08 95       	ret
    3622:	81 81       	ldd	r24, Z+1	; 0x01
    3624:	82 0f       	add	r24, r18
    3626:	81 83       	std	Z+1, r24	; 0x01
    3628:	80 34       	cpi	r24, 0x40	; 64
    362a:	2c f0       	brlt	.+10     	; 0x3636 <efxE_row+0x10c>
    362c:	ed 91       	ld	r30, X+
    362e:	fc 91       	ld	r31, X
    3630:	11 97       	sbiw	r26, 0x01	; 1
    3632:	8f e3       	ldi	r24, 0x3F	; 63
    3634:	81 83       	std	Z+1, r24	; 0x01
    3636:	18 96       	adiw	r26, 0x08	; 8
    3638:	8c 91       	ld	r24, X
    363a:	18 97       	sbiw	r26, 0x08	; 8
    363c:	81 60       	ori	r24, 0x01	; 1
    363e:	18 96       	adiw	r26, 0x08	; 8
    3640:	8c 93       	st	X, r24
    3642:	18 97       	sbiw	r26, 0x08	; 8
    3644:	08 95       	ret
    3646:	86 81       	ldd	r24, Z+6	; 0x06
    3648:	97 81       	ldd	r25, Z+7	; 0x07
    364a:	82 1b       	sub	r24, r18
    364c:	91 09       	sbc	r25, r1
    364e:	23 e0       	ldi	r18, 0x03	; 3
    3650:	89 35       	cpi	r24, 0x59	; 89
    3652:	92 07       	cpc	r25, r18
    3654:	0c f4       	brge	.+2      	; 0x3658 <efxE_row+0x12e>
    3656:	93 cf       	rjmp	.-218    	; 0x357e <efxE_row+0x54>
    3658:	88 e5       	ldi	r24, 0x58	; 88
    365a:	93 e0       	ldi	r25, 0x03	; 3
    365c:	95 cf       	rjmp	.-214    	; 0x3588 <efxE_row+0x5e>
    365e:	11 8a       	std	Z+17, r1	; 0x11
    3660:	08 95       	ret
    3662:	26 87       	std	Z+14, r18	; 0x0e
    3664:	a6 cf       	rjmp	.-180    	; 0x35b2 <efxE_row+0x88>
    3666:	80 91 80 05 	lds	r24, 0x0580
    366a:	85 87       	std	Z+13, r24	; 0x0d
    366c:	08 95       	ret

0000366e <efxF_row>:
    366e:	dc 01       	movw	r26, r24
    3670:	17 96       	adiw	r26, 0x07	; 7
    3672:	ec 91       	ld	r30, X
    3674:	17 97       	sbiw	r26, 0x07	; 7
    3676:	e0 32       	cpi	r30, 0x20	; 32
    3678:	70 f0       	brcs	.+28     	; 0x3696 <efxF_row+0x28>
    367a:	e0 93 ba 02 	sts	0x02BA, r30
    367e:	f0 e0       	ldi	r31, 0x00	; 0
    3680:	ee 0f       	add	r30, r30
    3682:	ff 1f       	adc	r31, r31
    3684:	e0 58       	subi	r30, 0x80	; 128
    3686:	fc 4f       	sbci	r31, 0xFC	; 252
    3688:	80 81       	ld	r24, Z
    368a:	91 81       	ldd	r25, Z+1	; 0x01
    368c:	90 93 3f 03 	sts	0x033F, r25
    3690:	80 93 3e 03 	sts	0x033E, r24
    3694:	08 95       	ret
    3696:	e0 93 84 05 	sts	0x0584, r30
    369a:	08 95       	ret

0000369c <efx0_tick>:
    369c:	cf 93       	push	r28
    369e:	df 93       	push	r29
    36a0:	dc 01       	movw	r26, r24
    36a2:	cd 91       	ld	r28, X+
    36a4:	dc 91       	ld	r29, X
    36a6:	11 97       	sbiw	r26, 0x01	; 1
    36a8:	eb 81       	ldd	r30, Y+3	; 0x03
    36aa:	88 85       	ldd	r24, Y+8	; 0x08
    36ac:	8f 5f       	subi	r24, 0xFF	; 255
    36ae:	88 87       	std	Y+8, r24	; 0x08
    36b0:	83 30       	cpi	r24, 0x03	; 3
    36b2:	20 f0       	brcs	.+8      	; 0x36bc <efx0_tick+0x20>
    36b4:	cd 91       	ld	r28, X+
    36b6:	dc 91       	ld	r29, X
    36b8:	11 97       	sbiw	r26, 0x01	; 1
    36ba:	18 86       	std	Y+8, r1	; 0x08
    36bc:	cd 91       	ld	r28, X+
    36be:	dc 91       	ld	r29, X
    36c0:	11 97       	sbiw	r26, 0x01	; 1
    36c2:	88 85       	ldd	r24, Y+8	; 0x08
    36c4:	81 30       	cpi	r24, 0x01	; 1
    36c6:	d9 f0       	breq	.+54     	; 0x36fe <efx0_tick+0x62>
    36c8:	82 30       	cpi	r24, 0x02	; 2
    36ca:	19 f4       	brne	.+6      	; 0x36d2 <efx0_tick+0x36>
    36cc:	8d 81       	ldd	r24, Y+5	; 0x05
    36ce:	8f 70       	andi	r24, 0x0F	; 15
    36d0:	e8 0f       	add	r30, r24
    36d2:	e4 32       	cpi	r30, 0x24	; 36
    36d4:	08 f0       	brcs	.+2      	; 0x36d8 <efx0_tick+0x3c>
    36d6:	e3 e2       	ldi	r30, 0x23	; 35
    36d8:	f0 e0       	ldi	r31, 0x00	; 0
    36da:	ee 0f       	add	r30, r30
    36dc:	ff 1f       	adc	r31, r31
    36de:	ee 5b       	subi	r30, 0xBE	; 190
    36e0:	fe 4f       	sbci	r31, 0xFE	; 254
    36e2:	80 81       	ld	r24, Z
    36e4:	91 81       	ldd	r25, Z+1	; 0x01
    36e6:	9f 83       	std	Y+7, r25	; 0x07
    36e8:	8e 83       	std	Y+6, r24	; 0x06
    36ea:	18 96       	adiw	r26, 0x08	; 8
    36ec:	8c 91       	ld	r24, X
    36ee:	18 97       	sbiw	r26, 0x08	; 8
    36f0:	82 60       	ori	r24, 0x02	; 2
    36f2:	18 96       	adiw	r26, 0x08	; 8
    36f4:	8c 93       	st	X, r24
    36f6:	18 97       	sbiw	r26, 0x08	; 8
    36f8:	df 91       	pop	r29
    36fa:	cf 91       	pop	r28
    36fc:	08 95       	ret
    36fe:	8d 81       	ldd	r24, Y+5	; 0x05
    3700:	82 95       	swap	r24
    3702:	8f 70       	andi	r24, 0x0F	; 15
    3704:	e8 0f       	add	r30, r24
    3706:	e5 cf       	rjmp	.-54     	; 0x36d2 <efx0_tick+0x36>

00003708 <efx1_tick>:
    3708:	fc 01       	movw	r30, r24
    370a:	a0 81       	ld	r26, Z
    370c:	b1 81       	ldd	r27, Z+1	; 0x01
    370e:	15 96       	adiw	r26, 0x05	; 5
    3710:	8c 91       	ld	r24, X
    3712:	15 97       	sbiw	r26, 0x05	; 5
    3714:	16 96       	adiw	r26, 0x06	; 6
    3716:	2d 91       	ld	r18, X+
    3718:	3c 91       	ld	r19, X
    371a:	17 97       	sbiw	r26, 0x07	; 7
    371c:	28 1b       	sub	r18, r24
    371e:	31 09       	sbc	r19, r1
    3720:	83 e0       	ldi	r24, 0x03	; 3
    3722:	29 35       	cpi	r18, 0x59	; 89
    3724:	38 07       	cpc	r19, r24
    3726:	6c f4       	brge	.+26     	; 0x3742 <efx1_tick+0x3a>
    3728:	21 37       	cpi	r18, 0x71	; 113
    372a:	31 05       	cpc	r19, r1
    372c:	14 f4       	brge	.+4      	; 0x3732 <efx1_tick+0x2a>
    372e:	21 e7       	ldi	r18, 0x71	; 113
    3730:	30 e0       	ldi	r19, 0x00	; 0
    3732:	17 96       	adiw	r26, 0x07	; 7
    3734:	3c 93       	st	X, r19
    3736:	2e 93       	st	-X, r18
    3738:	16 97       	sbiw	r26, 0x06	; 6
    373a:	80 85       	ldd	r24, Z+8	; 0x08
    373c:	82 60       	ori	r24, 0x02	; 2
    373e:	80 87       	std	Z+8, r24	; 0x08
    3740:	08 95       	ret
    3742:	28 e5       	ldi	r18, 0x58	; 88
    3744:	33 e0       	ldi	r19, 0x03	; 3
    3746:	17 96       	adiw	r26, 0x07	; 7
    3748:	3c 93       	st	X, r19
    374a:	2e 93       	st	-X, r18
    374c:	16 97       	sbiw	r26, 0x06	; 6
    374e:	80 85       	ldd	r24, Z+8	; 0x08
    3750:	82 60       	ori	r24, 0x02	; 2
    3752:	80 87       	std	Z+8, r24	; 0x08
    3754:	08 95       	ret

00003756 <efx2_tick>:
    3756:	fc 01       	movw	r30, r24
    3758:	a0 81       	ld	r26, Z
    375a:	b1 81       	ldd	r27, Z+1	; 0x01
    375c:	15 96       	adiw	r26, 0x05	; 5
    375e:	8c 91       	ld	r24, X
    3760:	15 97       	sbiw	r26, 0x05	; 5
    3762:	16 96       	adiw	r26, 0x06	; 6
    3764:	2d 91       	ld	r18, X+
    3766:	3c 91       	ld	r19, X
    3768:	17 97       	sbiw	r26, 0x07	; 7
    376a:	28 0f       	add	r18, r24
    376c:	31 1d       	adc	r19, r1
    376e:	83 e0       	ldi	r24, 0x03	; 3
    3770:	29 35       	cpi	r18, 0x59	; 89
    3772:	38 07       	cpc	r19, r24
    3774:	6c f4       	brge	.+26     	; 0x3790 <efx2_tick+0x3a>
    3776:	21 37       	cpi	r18, 0x71	; 113
    3778:	31 05       	cpc	r19, r1
    377a:	14 f4       	brge	.+4      	; 0x3780 <efx2_tick+0x2a>
    377c:	21 e7       	ldi	r18, 0x71	; 113
    377e:	30 e0       	ldi	r19, 0x00	; 0
    3780:	17 96       	adiw	r26, 0x07	; 7
    3782:	3c 93       	st	X, r19
    3784:	2e 93       	st	-X, r18
    3786:	16 97       	sbiw	r26, 0x06	; 6
    3788:	80 85       	ldd	r24, Z+8	; 0x08
    378a:	82 60       	ori	r24, 0x02	; 2
    378c:	80 87       	std	Z+8, r24	; 0x08
    378e:	08 95       	ret
    3790:	28 e5       	ldi	r18, 0x58	; 88
    3792:	33 e0       	ldi	r19, 0x03	; 3
    3794:	17 96       	adiw	r26, 0x07	; 7
    3796:	3c 93       	st	X, r19
    3798:	2e 93       	st	-X, r18
    379a:	16 97       	sbiw	r26, 0x06	; 6
    379c:	80 85       	ldd	r24, Z+8	; 0x08
    379e:	82 60       	ori	r24, 0x02	; 2
    37a0:	80 87       	std	Z+8, r24	; 0x08
    37a2:	08 95       	ret

000037a4 <efxE_tick>:
    37a4:	fc 01       	movw	r30, r24
    37a6:	a0 81       	ld	r26, Z
    37a8:	b1 81       	ldd	r27, Z+1	; 0x01
    37aa:	15 96       	adiw	r26, 0x05	; 5
    37ac:	8c 91       	ld	r24, X
    37ae:	15 97       	sbiw	r26, 0x05	; 5
    37b0:	98 2f       	mov	r25, r24
    37b2:	9f 70       	andi	r25, 0x0F	; 15
    37b4:	82 95       	swap	r24
    37b6:	8f 70       	andi	r24, 0x0F	; 15
    37b8:	89 30       	cpi	r24, 0x09	; 9
    37ba:	71 f0       	breq	.+28     	; 0x37d8 <efxE_tick+0x34>
    37bc:	8c 30       	cpi	r24, 0x0C	; 12
    37be:	09 f0       	breq	.+2      	; 0x37c2 <efxE_tick+0x1e>
    37c0:	08 95       	ret
    37c2:	80 91 bc 02 	lds	r24, 0x02BC
    37c6:	98 17       	cp	r25, r24
    37c8:	d8 f3       	brcs	.-10     	; 0x37c0 <efxE_tick+0x1c>
    37ca:	11 96       	adiw	r26, 0x01	; 1
    37cc:	1c 92       	st	X, r1
    37ce:	11 97       	sbiw	r26, 0x01	; 1
    37d0:	80 85       	ldd	r24, Z+8	; 0x08
    37d2:	81 60       	ori	r24, 0x01	; 1
    37d4:	80 87       	std	Z+8, r24	; 0x08
    37d6:	08 95       	ret
    37d8:	19 96       	adiw	r26, 0x09	; 9
    37da:	8c 91       	ld	r24, X
    37dc:	19 97       	sbiw	r26, 0x09	; 9
    37de:	8f 5f       	subi	r24, 0xFF	; 255
    37e0:	19 96       	adiw	r26, 0x09	; 9
    37e2:	8c 93       	st	X, r24
    37e4:	19 97       	sbiw	r26, 0x09	; 9
    37e6:	89 17       	cp	r24, r25
    37e8:	58 f3       	brcs	.-42     	; 0x37c0 <efxE_tick+0x1c>
    37ea:	a0 81       	ld	r26, Z
    37ec:	b1 81       	ldd	r27, Z+1	; 0x01
    37ee:	13 96       	adiw	r26, 0x03	; 3
    37f0:	8c 91       	ld	r24, X
    37f2:	13 97       	sbiw	r26, 0x03	; 3
    37f4:	84 83       	std	Z+4, r24	; 0x04
    37f6:	80 85       	ldd	r24, Z+8	; 0x08
    37f8:	80 61       	ori	r24, 0x10	; 16
    37fa:	80 87       	std	Z+8, r24	; 0x08
    37fc:	19 96       	adiw	r26, 0x09	; 9
    37fe:	1c 92       	st	X, r1
    3800:	19 97       	sbiw	r26, 0x09	; 9
    3802:	08 95       	ret

00003804 <efx4_tick>:
    3804:	cf 93       	push	r28
    3806:	df 93       	push	r29
    3808:	dc 01       	movw	r26, r24
    380a:	ed 91       	ld	r30, X+
    380c:	fc 91       	ld	r31, X
    380e:	11 97       	sbiw	r26, 0x01	; 1
    3810:	22 89       	ldd	r18, Z+18	; 0x12
    3812:	20 32       	cpi	r18, 0x20	; 32
    3814:	34 f0       	brlt	.+12     	; 0x3822 <efx4_tick+0x1e>
    3816:	2f 53       	subi	r18, 0x3F	; 63
    3818:	22 8b       	std	Z+18, r18	; 0x12
    381a:	ed 91       	ld	r30, X+
    381c:	fc 91       	ld	r31, X
    381e:	11 97       	sbiw	r26, 0x01	; 1
    3820:	22 89       	ldd	r18, Z+18	; 0x12
    3822:	c2 2f       	mov	r28, r18
    3824:	dd 27       	eor	r29, r29
    3826:	c7 fd       	sbrc	r28, 7
    3828:	d0 95       	com	r29
    382a:	d7 fd       	sbrc	r29, 7
    382c:	23 c0       	rjmp	.+70     	; 0x3874 <efx4_tick+0x70>
    382e:	d0 e0       	ldi	r29, 0x00	; 0
    3830:	c2 56       	subi	r28, 0x62	; 98
    3832:	de 4f       	sbci	r29, 0xFE	; 254
    3834:	88 81       	ld	r24, Y
    3836:	90 89       	ldd	r25, Z+16	; 0x10
    3838:	98 9f       	mul	r25, r24
    383a:	c0 01       	movw	r24, r0
    383c:	11 24       	eor	r1, r1
    383e:	88 0f       	add	r24, r24
    3840:	89 2f       	mov	r24, r25
    3842:	88 1f       	adc	r24, r24
    3844:	99 0b       	sbc	r25, r25
    3846:	91 95       	neg	r25
    3848:	94 8b       	std	Z+20, r25	; 0x14
    384a:	83 8b       	std	Z+19, r24	; 0x13
    384c:	27 ff       	sbrs	r18, 7
    384e:	05 c0       	rjmp	.+10     	; 0x385a <efx4_tick+0x56>
    3850:	90 95       	com	r25
    3852:	81 95       	neg	r24
    3854:	9f 4f       	sbci	r25, 0xFF	; 255
    3856:	94 8b       	std	Z+20, r25	; 0x14
    3858:	83 8b       	std	Z+19, r24	; 0x13
    385a:	87 85       	ldd	r24, Z+15	; 0x0f
    385c:	82 0f       	add	r24, r18
    385e:	82 8b       	std	Z+18, r24	; 0x12
    3860:	18 96       	adiw	r26, 0x08	; 8
    3862:	8c 91       	ld	r24, X
    3864:	18 97       	sbiw	r26, 0x08	; 8
    3866:	82 60       	ori	r24, 0x02	; 2
    3868:	18 96       	adiw	r26, 0x08	; 8
    386a:	8c 93       	st	X, r24
    386c:	18 97       	sbiw	r26, 0x08	; 8
    386e:	df 91       	pop	r29
    3870:	cf 91       	pop	r28
    3872:	08 95       	ret
    3874:	d0 95       	com	r29
    3876:	c1 95       	neg	r28
    3878:	df 4f       	sbci	r29, 0xFF	; 255
    387a:	d9 cf       	rjmp	.-78     	; 0x382e <efx4_tick+0x2a>

0000387c <efxA_tick>:
    387c:	fc 01       	movw	r30, r24
    387e:	a0 81       	ld	r26, Z
    3880:	b1 81       	ldd	r27, Z+1	; 0x01
    3882:	15 96       	adiw	r26, 0x05	; 5
    3884:	8c 91       	ld	r24, X
    3886:	15 97       	sbiw	r26, 0x05	; 5
    3888:	98 2f       	mov	r25, r24
    388a:	92 95       	swap	r25
    388c:	9f 70       	andi	r25, 0x0F	; 15
    388e:	8f 70       	andi	r24, 0x0F	; 15
    3890:	99 23       	and	r25, r25
    3892:	69 f4       	brne	.+26     	; 0x38ae <efxA_tick+0x32>
    3894:	11 96       	adiw	r26, 0x01	; 1
    3896:	9c 91       	ld	r25, X
    3898:	11 97       	sbiw	r26, 0x01	; 1
    389a:	98 1b       	sub	r25, r24
    389c:	11 96       	adiw	r26, 0x01	; 1
    389e:	9c 93       	st	X, r25
    38a0:	11 97       	sbiw	r26, 0x01	; 1
    38a2:	97 fd       	sbrc	r25, 7
    38a4:	19 c0       	rjmp	.+50     	; 0x38d8 <efxA_tick+0x5c>
    38a6:	80 85       	ldd	r24, Z+8	; 0x08
    38a8:	81 60       	ori	r24, 0x01	; 1
    38aa:	80 87       	std	Z+8, r24	; 0x08
    38ac:	08 95       	ret
    38ae:	88 23       	and	r24, r24
    38b0:	e9 f7       	brne	.-6      	; 0x38ac <efxA_tick+0x30>
    38b2:	11 96       	adiw	r26, 0x01	; 1
    38b4:	8c 91       	ld	r24, X
    38b6:	11 97       	sbiw	r26, 0x01	; 1
    38b8:	89 0f       	add	r24, r25
    38ba:	11 96       	adiw	r26, 0x01	; 1
    38bc:	8c 93       	st	X, r24
    38be:	11 97       	sbiw	r26, 0x01	; 1
    38c0:	80 34       	cpi	r24, 0x40	; 64
    38c2:	8c f3       	brlt	.-30     	; 0x38a6 <efxA_tick+0x2a>
    38c4:	a0 81       	ld	r26, Z
    38c6:	b1 81       	ldd	r27, Z+1	; 0x01
    38c8:	8f e3       	ldi	r24, 0x3F	; 63
    38ca:	11 96       	adiw	r26, 0x01	; 1
    38cc:	8c 93       	st	X, r24
    38ce:	11 97       	sbiw	r26, 0x01	; 1
    38d0:	80 85       	ldd	r24, Z+8	; 0x08
    38d2:	81 60       	ori	r24, 0x01	; 1
    38d4:	80 87       	std	Z+8, r24	; 0x08
    38d6:	ea cf       	rjmp	.-44     	; 0x38ac <efxA_tick+0x30>
    38d8:	a0 81       	ld	r26, Z
    38da:	b1 81       	ldd	r27, Z+1	; 0x01
    38dc:	11 96       	adiw	r26, 0x01	; 1
    38de:	1c 92       	st	X, r1
    38e0:	11 97       	sbiw	r26, 0x01	; 1
    38e2:	80 85       	ldd	r24, Z+8	; 0x08
    38e4:	81 60       	ori	r24, 0x01	; 1
    38e6:	80 87       	std	Z+8, r24	; 0x08
    38e8:	e1 cf       	rjmp	.-62     	; 0x38ac <efxA_tick+0x30>

000038ea <efx6_tick>:
    38ea:	cf 93       	push	r28
    38ec:	df 93       	push	r29
    38ee:	dc 01       	movw	r26, r24
    38f0:	ed 91       	ld	r30, X+
    38f2:	fc 91       	ld	r31, X
    38f4:	11 97       	sbiw	r26, 0x01	; 1
    38f6:	22 89       	ldd	r18, Z+18	; 0x12
    38f8:	20 32       	cpi	r18, 0x20	; 32
    38fa:	34 f0       	brlt	.+12     	; 0x3908 <efx6_tick+0x1e>
    38fc:	2f 53       	subi	r18, 0x3F	; 63
    38fe:	22 8b       	std	Z+18, r18	; 0x12
    3900:	ed 91       	ld	r30, X+
    3902:	fc 91       	ld	r31, X
    3904:	11 97       	sbiw	r26, 0x01	; 1
    3906:	22 89       	ldd	r18, Z+18	; 0x12
    3908:	c2 2f       	mov	r28, r18
    390a:	dd 27       	eor	r29, r29
    390c:	c7 fd       	sbrc	r28, 7
    390e:	d0 95       	com	r29
    3910:	d7 fd       	sbrc	r29, 7
    3912:	46 c0       	rjmp	.+140    	; 0x39a0 <efx6_tick+0xb6>
    3914:	d0 e0       	ldi	r29, 0x00	; 0
    3916:	c2 56       	subi	r28, 0x62	; 98
    3918:	de 4f       	sbci	r29, 0xFE	; 254
    391a:	88 81       	ld	r24, Y
    391c:	90 89       	ldd	r25, Z+16	; 0x10
    391e:	98 9f       	mul	r25, r24
    3920:	c0 01       	movw	r24, r0
    3922:	11 24       	eor	r1, r1
    3924:	88 0f       	add	r24, r24
    3926:	89 2f       	mov	r24, r25
    3928:	88 1f       	adc	r24, r24
    392a:	99 0b       	sbc	r25, r25
    392c:	91 95       	neg	r25
    392e:	94 8b       	std	Z+20, r25	; 0x14
    3930:	83 8b       	std	Z+19, r24	; 0x13
    3932:	27 ff       	sbrs	r18, 7
    3934:	05 c0       	rjmp	.+10     	; 0x3940 <efx6_tick+0x56>
    3936:	90 95       	com	r25
    3938:	81 95       	neg	r24
    393a:	9f 4f       	sbci	r25, 0xFF	; 255
    393c:	94 8b       	std	Z+20, r25	; 0x14
    393e:	83 8b       	std	Z+19, r24	; 0x13
    3940:	87 85       	ldd	r24, Z+15	; 0x0f
    3942:	82 0f       	add	r24, r18
    3944:	82 8b       	std	Z+18, r24	; 0x12
    3946:	18 96       	adiw	r26, 0x08	; 8
    3948:	8c 91       	ld	r24, X
    394a:	18 97       	sbiw	r26, 0x08	; 8
    394c:	82 60       	ori	r24, 0x02	; 2
    394e:	18 96       	adiw	r26, 0x08	; 8
    3950:	8c 93       	st	X, r24
    3952:	18 97       	sbiw	r26, 0x08	; 8
    3954:	ed 91       	ld	r30, X+
    3956:	fc 91       	ld	r31, X
    3958:	11 97       	sbiw	r26, 0x01	; 1
    395a:	85 81       	ldd	r24, Z+5	; 0x05
    395c:	98 2f       	mov	r25, r24
    395e:	92 95       	swap	r25
    3960:	9f 70       	andi	r25, 0x0F	; 15
    3962:	8f 70       	andi	r24, 0x0F	; 15
    3964:	99 23       	and	r25, r25
    3966:	79 f4       	brne	.+30     	; 0x3986 <efx6_tick+0x9c>
    3968:	91 81       	ldd	r25, Z+1	; 0x01
    396a:	98 1b       	sub	r25, r24
    396c:	91 83       	std	Z+1, r25	; 0x01
    396e:	97 fd       	sbrc	r25, 7
    3970:	1b c0       	rjmp	.+54     	; 0x39a8 <efx6_tick+0xbe>
    3972:	18 96       	adiw	r26, 0x08	; 8
    3974:	8c 91       	ld	r24, X
    3976:	18 97       	sbiw	r26, 0x08	; 8
    3978:	81 60       	ori	r24, 0x01	; 1
    397a:	18 96       	adiw	r26, 0x08	; 8
    397c:	8c 93       	st	X, r24
    397e:	18 97       	sbiw	r26, 0x08	; 8
    3980:	df 91       	pop	r29
    3982:	cf 91       	pop	r28
    3984:	08 95       	ret
    3986:	88 23       	and	r24, r24
    3988:	d9 f7       	brne	.-10     	; 0x3980 <efx6_tick+0x96>
    398a:	81 81       	ldd	r24, Z+1	; 0x01
    398c:	89 0f       	add	r24, r25
    398e:	81 83       	std	Z+1, r24	; 0x01
    3990:	80 34       	cpi	r24, 0x40	; 64
    3992:	7c f3       	brlt	.-34     	; 0x3972 <efx6_tick+0x88>
    3994:	ed 91       	ld	r30, X+
    3996:	fc 91       	ld	r31, X
    3998:	11 97       	sbiw	r26, 0x01	; 1
    399a:	8f e3       	ldi	r24, 0x3F	; 63
    399c:	81 83       	std	Z+1, r24	; 0x01
    399e:	e9 cf       	rjmp	.-46     	; 0x3972 <efx6_tick+0x88>
    39a0:	d0 95       	com	r29
    39a2:	c1 95       	neg	r28
    39a4:	df 4f       	sbci	r29, 0xFF	; 255
    39a6:	b6 cf       	rjmp	.-148    	; 0x3914 <efx6_tick+0x2a>
    39a8:	ed 91       	ld	r30, X+
    39aa:	fc 91       	ld	r31, X
    39ac:	11 97       	sbiw	r26, 0x01	; 1
    39ae:	11 82       	std	Z+1, r1	; 0x01
    39b0:	e0 cf       	rjmp	.-64     	; 0x3972 <efx6_tick+0x88>

000039b2 <readsongbyte>:
    39b2:	fc 01       	movw	r30, r24
    39b4:	e8 59       	subi	r30, 0x98	; 152
    39b6:	ff 4f       	sbci	r31, 0xFF	; 255
    39b8:	84 91       	lpm	r24, Z+
    39ba:	08 95       	ret

000039bc <readsongbytesigned>:
    39bc:	fc 01       	movw	r30, r24
    39be:	e8 59       	subi	r30, 0x98	; 152
    39c0:	ff 4f       	sbci	r31, 0xFF	; 255
    39c2:	84 91       	lpm	r24, Z+
    39c4:	08 95       	ret

000039c6 <readsongword>:
    39c6:	fc 01       	movw	r30, r24
    39c8:	e8 59       	subi	r30, 0x98	; 152
    39ca:	ff 4f       	sbci	r31, 0xFF	; 255
    39cc:	25 91       	lpm	r18, Z+
    39ce:	34 91       	lpm	r19, Z+
    39d0:	c9 01       	movw	r24, r18
    39d2:	08 95       	ret

000039d4 <readsongblock>:
    39d4:	41 15       	cp	r20, r1
    39d6:	51 05       	cpc	r21, r1
    39d8:	81 f0       	breq	.+32     	; 0x39fa <readsongblock+0x26>
    39da:	a6 2f       	mov	r26, r22
    39dc:	b7 2f       	mov	r27, r23
    39de:	20 e0       	ldi	r18, 0x00	; 0
    39e0:	30 e0       	ldi	r19, 0x00	; 0
    39e2:	f9 01       	movw	r30, r18
    39e4:	e8 0f       	add	r30, r24
    39e6:	f9 1f       	adc	r31, r25
    39e8:	e8 59       	subi	r30, 0x98	; 152
    39ea:	ff 4f       	sbci	r31, 0xFF	; 255
    39ec:	e4 91       	lpm	r30, Z+
    39ee:	ed 93       	st	X+, r30
    39f0:	2f 5f       	subi	r18, 0xFF	; 255
    39f2:	3f 4f       	sbci	r19, 0xFF	; 255
    39f4:	24 17       	cp	r18, r20
    39f6:	35 07       	cpc	r19, r21
    39f8:	a0 f3       	brcs	.-24     	; 0x39e2 <readsongblock+0xe>
    39fa:	08 95       	ret

000039fc <havevalidsong>:
    39fc:	df 93       	push	r29
    39fe:	cf 93       	push	r28
    3a00:	00 d0       	rcall	.+0      	; 0x3a02 <havevalidsong+0x6>
    3a02:	00 d0       	rcall	.+0      	; 0x3a04 <havevalidsong+0x8>
    3a04:	cd b7       	in	r28, 0x3d	; 61
    3a06:	de b7       	in	r29, 0x3e	; 62
    3a08:	de 01       	movw	r26, r28
    3a0a:	11 96       	adiw	r26, 0x01	; 1
    3a0c:	88 e6       	ldi	r24, 0x68	; 104
    3a0e:	90 e0       	ldi	r25, 0x00	; 0
    3a10:	fc 01       	movw	r30, r24
    3a12:	24 91       	lpm	r18, Z+
    3a14:	31 96       	adiw	r30, 0x01	; 1
    3a16:	e4 91       	lpm	r30, Z+
    3a18:	11 96       	adiw	r26, 0x01	; 1
    3a1a:	ec 93       	st	X, r30
    3a1c:	11 97       	sbiw	r26, 0x01	; 1
    3a1e:	fc 01       	movw	r30, r24
    3a20:	32 96       	adiw	r30, 0x02	; 2
    3a22:	e4 91       	lpm	r30, Z+
    3a24:	12 96       	adiw	r26, 0x02	; 2
    3a26:	ec 93       	st	X, r30
    3a28:	12 97       	sbiw	r26, 0x02	; 2
    3a2a:	03 96       	adiw	r24, 0x03	; 3
    3a2c:	fc 01       	movw	r30, r24
    3a2e:	84 91       	lpm	r24, Z+
    3a30:	13 96       	adiw	r26, 0x03	; 3
    3a32:	8c 93       	st	X, r24
    3a34:	13 97       	sbiw	r26, 0x03	; 3
    3a36:	21 34       	cpi	r18, 0x41	; 65
    3a38:	41 f0       	breq	.+16     	; 0x3a4a <havevalidsong+0x4e>
    3a3a:	80 e0       	ldi	r24, 0x00	; 0
    3a3c:	0f 90       	pop	r0
    3a3e:	0f 90       	pop	r0
    3a40:	0f 90       	pop	r0
    3a42:	0f 90       	pop	r0
    3a44:	cf 91       	pop	r28
    3a46:	df 91       	pop	r29
    3a48:	08 95       	ret
    3a4a:	8a 81       	ldd	r24, Y+2	; 0x02
    3a4c:	86 35       	cpi	r24, 0x56	; 86
    3a4e:	a9 f7       	brne	.-22     	; 0x3a3a <havevalidsong+0x3e>
    3a50:	8b 81       	ldd	r24, Y+3	; 0x03
    3a52:	82 35       	cpi	r24, 0x52	; 82
    3a54:	91 f7       	brne	.-28     	; 0x3a3a <havevalidsong+0x3e>
    3a56:	81 e0       	ldi	r24, 0x01	; 1
    3a58:	9c 81       	ldd	r25, Y+4	; 0x04
    3a5a:	9d 34       	cpi	r25, 0x4D	; 77
    3a5c:	71 f7       	brne	.-36     	; 0x3a3a <havevalidsong+0x3e>
    3a5e:	ee cf       	rjmp	.-36     	; 0x3a3c <havevalidsong+0x40>

00003a60 <setpattern>:
    3a60:	fc 01       	movw	r30, r24
    3a62:	80 91 c4 02 	lds	r24, 0x02C4
    3a66:	68 17       	cp	r22, r24
    3a68:	d8 f4       	brcc	.+54     	; 0x3aa0 <setpattern+0x40>
    3a6a:	60 83       	st	Z, r22
    3a6c:	70 e0       	ldi	r23, 0x00	; 0
    3a6e:	20 e0       	ldi	r18, 0x00	; 0
    3a70:	33 e0       	ldi	r19, 0x03	; 3
    3a72:	62 9f       	mul	r22, r18
    3a74:	c0 01       	movw	r24, r0
    3a76:	63 9f       	mul	r22, r19
    3a78:	90 0d       	add	r25, r0
    3a7a:	72 9f       	mul	r23, r18
    3a7c:	90 0d       	add	r25, r0
    3a7e:	11 24       	eor	r1, r1
    3a80:	20 91 c5 02 	lds	r18, 0x02C5
    3a84:	30 91 c6 02 	lds	r19, 0x02C6
    3a88:	82 0f       	add	r24, r18
    3a8a:	93 1f       	adc	r25, r19
    3a8c:	92 83       	std	Z+2, r25	; 0x02
    3a8e:	81 83       	std	Z+1, r24	; 0x01
    3a90:	8c e0       	ldi	r24, 0x0C	; 12
    3a92:	48 9f       	mul	r20, r24
    3a94:	a0 01       	movw	r20, r0
    3a96:	11 24       	eor	r1, r1
    3a98:	54 83       	std	Z+4, r21	; 0x04
    3a9a:	43 83       	std	Z+3, r20	; 0x03
    3a9c:	81 e0       	ldi	r24, 0x01	; 1
    3a9e:	08 95       	ret
    3aa0:	80 e0       	ldi	r24, 0x00	; 0
    3aa2:	08 95       	ret

00003aa4 <pitchslide>:
    3aa4:	68 0f       	add	r22, r24
    3aa6:	79 1f       	adc	r23, r25
    3aa8:	83 e0       	ldi	r24, 0x03	; 3
    3aaa:	69 35       	cpi	r22, 0x59	; 89
    3aac:	78 07       	cpc	r23, r24
    3aae:	3c f4       	brge	.+14     	; 0x3abe <pitchslide+0x1a>
    3ab0:	61 37       	cpi	r22, 0x71	; 113
    3ab2:	71 05       	cpc	r23, r1
    3ab4:	14 f4       	brge	.+4      	; 0x3aba <pitchslide+0x16>
    3ab6:	61 e7       	ldi	r22, 0x71	; 113
    3ab8:	70 e0       	ldi	r23, 0x00	; 0
    3aba:	cb 01       	movw	r24, r22
    3abc:	08 95       	ret
    3abe:	68 e5       	ldi	r22, 0x58	; 88
    3ac0:	73 e0       	ldi	r23, 0x03	; 3
    3ac2:	cb 01       	movw	r24, r22
    3ac4:	08 95       	ret

00003ac6 <initmodule>:
    3ac6:	0f 93       	push	r16
    3ac8:	1f 93       	push	r17
    3aca:	cf 93       	push	r28
    3acc:	df 93       	push	r29
    3ace:	8c e6       	ldi	r24, 0x6C	; 108
    3ad0:	90 e0       	ldi	r25, 0x00	; 0
    3ad2:	fc 01       	movw	r30, r24
    3ad4:	24 91       	lpm	r18, Z+
    3ad6:	20 93 be 02 	sts	0x02BE, r18
    3ada:	31 96       	adiw	r30, 0x01	; 1
    3adc:	e4 91       	lpm	r30, Z+
    3ade:	e0 93 bf 02 	sts	0x02BF, r30
    3ae2:	fc 01       	movw	r30, r24
    3ae4:	32 96       	adiw	r30, 0x02	; 2
    3ae6:	e4 91       	lpm	r30, Z+
    3ae8:	e0 93 c0 02 	sts	0x02C0, r30
    3aec:	fc 01       	movw	r30, r24
    3aee:	33 96       	adiw	r30, 0x03	; 3
    3af0:	24 91       	lpm	r18, Z+
    3af2:	20 93 c1 02 	sts	0x02C1, r18
    3af6:	fc 01       	movw	r30, r24
    3af8:	34 96       	adiw	r30, 0x04	; 4
    3afa:	e4 91       	lpm	r30, Z+
    3afc:	e0 93 c2 02 	sts	0x02C2, r30
    3b00:	fc 01       	movw	r30, r24
    3b02:	35 96       	adiw	r30, 0x05	; 5
    3b04:	e4 91       	lpm	r30, Z+
    3b06:	e0 93 c3 02 	sts	0x02C3, r30
    3b0a:	fc 01       	movw	r30, r24
    3b0c:	36 96       	adiw	r30, 0x06	; 6
    3b0e:	e4 91       	lpm	r30, Z+
    3b10:	e0 93 c4 02 	sts	0x02C4, r30
    3b14:	fc 01       	movw	r30, r24
    3b16:	37 96       	adiw	r30, 0x07	; 7
    3b18:	e4 91       	lpm	r30, Z+
    3b1a:	e0 93 c5 02 	sts	0x02C5, r30
    3b1e:	fc 01       	movw	r30, r24
    3b20:	38 96       	adiw	r30, 0x08	; 8
    3b22:	e4 91       	lpm	r30, Z+
    3b24:	e0 93 c6 02 	sts	0x02C6, r30
    3b28:	fc 01       	movw	r30, r24
    3b2a:	39 96       	adiw	r30, 0x09	; 9
    3b2c:	e4 91       	lpm	r30, Z+
    3b2e:	e0 93 c7 02 	sts	0x02C7, r30
    3b32:	fc 01       	movw	r30, r24
    3b34:	3a 96       	adiw	r30, 0x0a	; 10
    3b36:	e4 91       	lpm	r30, Z+
    3b38:	e0 93 c8 02 	sts	0x02C8, r30
    3b3c:	fc 01       	movw	r30, r24
    3b3e:	3b 96       	adiw	r30, 0x0b	; 11
    3b40:	e4 91       	lpm	r30, Z+
    3b42:	e0 93 c9 02 	sts	0x02C9, r30
    3b46:	fc 01       	movw	r30, r24
    3b48:	3c 96       	adiw	r30, 0x0c	; 12
    3b4a:	e4 91       	lpm	r30, Z+
    3b4c:	e0 93 ca 02 	sts	0x02CA, r30
    3b50:	fc 01       	movw	r30, r24
    3b52:	3d 96       	adiw	r30, 0x0d	; 13
    3b54:	e4 91       	lpm	r30, Z+
    3b56:	e0 93 cb 02 	sts	0x02CB, r30
    3b5a:	0e 96       	adiw	r24, 0x0e	; 14
    3b5c:	fc 01       	movw	r30, r24
    3b5e:	84 91       	lpm	r24, Z+
    3b60:	80 93 cc 02 	sts	0x02CC, r24
    3b64:	40 91 c2 02 	lds	r20, 0x02C2
    3b68:	50 91 c3 02 	lds	r21, 0x02C3
    3b6c:	30 e0       	ldi	r19, 0x00	; 0
    3b6e:	21 15       	cp	r18, r1
    3b70:	31 05       	cpc	r19, r1
    3b72:	79 f0       	breq	.+30     	; 0x3b92 <initmodule+0xcc>
    3b74:	a0 e4       	ldi	r26, 0x40	; 64
    3b76:	b3 e0       	ldi	r27, 0x03	; 3
    3b78:	80 e0       	ldi	r24, 0x00	; 0
    3b7a:	90 e0       	ldi	r25, 0x00	; 0
    3b7c:	fc 01       	movw	r30, r24
    3b7e:	e4 0f       	add	r30, r20
    3b80:	f5 1f       	adc	r31, r21
    3b82:	e8 59       	subi	r30, 0x98	; 152
    3b84:	ff 4f       	sbci	r31, 0xFF	; 255
    3b86:	e4 91       	lpm	r30, Z+
    3b88:	ed 93       	st	X+, r30
    3b8a:	01 96       	adiw	r24, 0x01	; 1
    3b8c:	82 17       	cp	r24, r18
    3b8e:	93 07       	cpc	r25, r19
    3b90:	a8 f3       	brcs	.-22     	; 0x3b7c <initmodule+0xb6>
    3b92:	40 91 bf 02 	lds	r20, 0x02BF
    3b96:	50 91 c0 02 	lds	r21, 0x02C0
    3b9a:	60 91 be 02 	lds	r22, 0x02BE
    3b9e:	26 2f       	mov	r18, r22
    3ba0:	30 e0       	ldi	r19, 0x00	; 0
    3ba2:	22 0f       	add	r18, r18
    3ba4:	33 1f       	adc	r19, r19
    3ba6:	22 0f       	add	r18, r18
    3ba8:	33 1f       	adc	r19, r19
    3baa:	22 0f       	add	r18, r18
    3bac:	33 1f       	adc	r19, r19
    3bae:	21 15       	cp	r18, r1
    3bb0:	31 05       	cpc	r19, r1
    3bb2:	79 f0       	breq	.+30     	; 0x3bd2 <initmodule+0x10c>
    3bb4:	ae eb       	ldi	r26, 0xBE	; 190
    3bb6:	b1 e0       	ldi	r27, 0x01	; 1
    3bb8:	80 e0       	ldi	r24, 0x00	; 0
    3bba:	90 e0       	ldi	r25, 0x00	; 0
    3bbc:	fc 01       	movw	r30, r24
    3bbe:	e4 0f       	add	r30, r20
    3bc0:	f5 1f       	adc	r31, r21
    3bc2:	e8 59       	subi	r30, 0x98	; 152
    3bc4:	ff 4f       	sbci	r31, 0xFF	; 255
    3bc6:	e4 91       	lpm	r30, Z+
    3bc8:	ed 93       	st	X+, r30
    3bca:	01 96       	adiw	r24, 0x01	; 1
    3bcc:	82 17       	cp	r24, r18
    3bce:	93 07       	cpc	r25, r19
    3bd0:	a8 f3       	brcs	.-22     	; 0x3bbc <initmodule+0xf6>
    3bd2:	20 91 c8 02 	lds	r18, 0x02C8
    3bd6:	30 91 c9 02 	lds	r19, 0x02C9
    3bda:	66 23       	and	r22, r22
    3bdc:	b9 f0       	breq	.+46     	; 0x3c0c <initmodule+0x146>
    3bde:	a2 ed       	ldi	r26, 0xD2	; 210
    3be0:	b5 e0       	ldi	r27, 0x05	; 5
    3be2:	ee eb       	ldi	r30, 0xBE	; 190
    3be4:	f1 e0       	ldi	r31, 0x01	; 1
    3be6:	61 50       	subi	r22, 0x01	; 1
    3be8:	46 2f       	mov	r20, r22
    3bea:	50 e0       	ldi	r21, 0x00	; 0
    3bec:	44 0f       	add	r20, r20
    3bee:	55 1f       	adc	r21, r21
    3bf0:	4c 52       	subi	r20, 0x2C	; 44
    3bf2:	5a 4f       	sbci	r21, 0xFA	; 250
    3bf4:	2d 93       	st	X+, r18
    3bf6:	3d 93       	st	X+, r19
    3bf8:	80 81       	ld	r24, Z
    3bfa:	91 81       	ldd	r25, Z+1	; 0x01
    3bfc:	88 0f       	add	r24, r24
    3bfe:	99 1f       	adc	r25, r25
    3c00:	28 0f       	add	r18, r24
    3c02:	39 1f       	adc	r19, r25
    3c04:	38 96       	adiw	r30, 0x08	; 8
    3c06:	a4 17       	cp	r26, r20
    3c08:	b5 07       	cpc	r27, r21
    3c0a:	a1 f7       	brne	.-24     	; 0x3bf4 <initmodule+0x12e>
    3c0c:	e0 ec       	ldi	r30, 0xC0	; 192
    3c0e:	f3 e0       	ldi	r31, 0x03	; 3
    3c10:	20 e2       	ldi	r18, 0x20	; 32
    3c12:	30 e0       	ldi	r19, 0x00	; 0
    3c14:	c5 e0       	ldi	r28, 0x05	; 5
    3c16:	d0 e0       	ldi	r29, 0x00	; 0
    3c18:	00 e2       	ldi	r16, 0x20	; 32
    3c1a:	1e e4       	ldi	r17, 0x4E	; 78
    3c1c:	c9 01       	movw	r24, r18
    3c1e:	88 0f       	add	r24, r24
    3c20:	99 1f       	adc	r25, r25
    3c22:	be 01       	movw	r22, r28
    3c24:	0e 94 c8 2e 	call	0x5d90	; 0x5d90 <__udivmodhi4>
    3c28:	c8 01       	movw	r24, r16
    3c2a:	0e 94 c8 2e 	call	0x5d90	; 0x5d90 <__udivmodhi4>
    3c2e:	61 93       	st	Z+, r22
    3c30:	71 93       	st	Z+, r23
    3c32:	2f 5f       	subi	r18, 0xFF	; 255
    3c34:	3f 4f       	sbci	r19, 0xFF	; 255
    3c36:	81 e0       	ldi	r24, 0x01	; 1
    3c38:	20 30       	cpi	r18, 0x00	; 0
    3c3a:	38 07       	cpc	r19, r24
    3c3c:	79 f7       	brne	.-34     	; 0x3c1c <initmodule+0x156>
    3c3e:	80 e0       	ldi	r24, 0x00	; 0
    3c40:	92 eb       	ldi	r25, 0xB2	; 178
    3c42:	a0 e0       	ldi	r26, 0x00	; 0
    3c44:	b0 e0       	ldi	r27, 0x00	; 0
    3c46:	80 93 ce 02 	sts	0x02CE, r24
    3c4a:	90 93 cf 02 	sts	0x02CF, r25
    3c4e:	a0 93 d0 02 	sts	0x02D0, r26
    3c52:	b0 93 d1 02 	sts	0x02D1, r27
    3c56:	10 92 cd 02 	sts	0x02CD, r1
    3c5a:	10 92 80 05 	sts	0x0580, r1
    3c5e:	81 e0       	ldi	r24, 0x01	; 1
    3c60:	80 93 b6 02 	sts	0x02B6, r24
    3c64:	10 92 b9 02 	sts	0x02B9, r1
    3c68:	10 92 83 05 	sts	0x0583, r1
    3c6c:	40 91 40 03 	lds	r20, 0x0340
    3c70:	80 91 c4 02 	lds	r24, 0x02C4
    3c74:	48 17       	cp	r20, r24
    3c76:	d0 f4       	brcc	.+52     	; 0x3cac <initmodule+0x1e6>
    3c78:	40 93 85 05 	sts	0x0585, r20
    3c7c:	50 e0       	ldi	r21, 0x00	; 0
    3c7e:	20 e0       	ldi	r18, 0x00	; 0
    3c80:	33 e0       	ldi	r19, 0x03	; 3
    3c82:	42 9f       	mul	r20, r18
    3c84:	c0 01       	movw	r24, r0
    3c86:	43 9f       	mul	r20, r19
    3c88:	90 0d       	add	r25, r0
    3c8a:	52 9f       	mul	r21, r18
    3c8c:	90 0d       	add	r25, r0
    3c8e:	11 24       	eor	r1, r1
    3c90:	20 91 c5 02 	lds	r18, 0x02C5
    3c94:	30 91 c6 02 	lds	r19, 0x02C6
    3c98:	82 0f       	add	r24, r18
    3c9a:	93 1f       	adc	r25, r19
    3c9c:	90 93 87 05 	sts	0x0587, r25
    3ca0:	80 93 86 05 	sts	0x0586, r24
    3ca4:	10 92 89 05 	sts	0x0589, r1
    3ca8:	10 92 88 05 	sts	0x0588, r1
    3cac:	86 e0       	ldi	r24, 0x06	; 6
    3cae:	80 93 bc 02 	sts	0x02BC, r24
    3cb2:	10 92 84 05 	sts	0x0584, r1
    3cb6:	80 91 7a 04 	lds	r24, 0x047A
    3cba:	90 91 7b 04 	lds	r25, 0x047B
    3cbe:	90 93 3f 03 	sts	0x033F, r25
    3cc2:	80 93 3e 03 	sts	0x033E, r24
    3cc6:	8d e7       	ldi	r24, 0x7D	; 125
    3cc8:	80 93 ba 02 	sts	0x02BA, r24
    3ccc:	3f e3       	ldi	r19, 0x3F	; 63
    3cce:	30 93 d5 02 	sts	0x02D5, r19
    3cd2:	8f ef       	ldi	r24, 0xFF	; 255
    3cd4:	9f ef       	ldi	r25, 0xFF	; 255
    3cd6:	90 93 de 02 	sts	0x02DE, r25
    3cda:	80 93 dd 02 	sts	0x02DD, r24
    3cde:	10 92 df 02 	sts	0x02DF, r1
    3ce2:	10 92 e0 02 	sts	0x02E0, r1
    3ce6:	10 92 8b 05 	sts	0x058B, r1
    3cea:	10 92 8a 05 	sts	0x058A, r1
    3cee:	40 e3       	ldi	r20, 0x30	; 48
    3cf0:	40 93 93 05 	sts	0x0593, r20
    3cf4:	40 93 d4 02 	sts	0x02D4, r20
    3cf8:	30 93 f0 02 	sts	0x02F0, r19
    3cfc:	90 93 f9 02 	sts	0x02F9, r25
    3d00:	80 93 f8 02 	sts	0x02F8, r24
    3d04:	10 92 fa 02 	sts	0x02FA, r1
    3d08:	10 92 fb 02 	sts	0x02FB, r1
    3d0c:	10 92 9d 05 	sts	0x059D, r1
    3d10:	10 92 9c 05 	sts	0x059C, r1
    3d14:	20 e1       	ldi	r18, 0x10	; 16
    3d16:	20 93 a5 05 	sts	0x05A5, r18
    3d1a:	20 93 ef 02 	sts	0x02EF, r18
    3d1e:	30 93 0b 03 	sts	0x030B, r19
    3d22:	90 93 14 03 	sts	0x0314, r25
    3d26:	80 93 13 03 	sts	0x0313, r24
    3d2a:	10 92 15 03 	sts	0x0315, r1
    3d2e:	10 92 16 03 	sts	0x0316, r1
    3d32:	10 92 af 05 	sts	0x05AF, r1
    3d36:	10 92 ae 05 	sts	0x05AE, r1
    3d3a:	40 93 b7 05 	sts	0x05B7, r20
    3d3e:	40 93 0a 03 	sts	0x030A, r20
    3d42:	30 93 26 03 	sts	0x0326, r19
    3d46:	90 93 2f 03 	sts	0x032F, r25
    3d4a:	80 93 2e 03 	sts	0x032E, r24
    3d4e:	10 92 30 03 	sts	0x0330, r1
    3d52:	10 92 31 03 	sts	0x0331, r1
    3d56:	10 92 c1 05 	sts	0x05C1, r1
    3d5a:	10 92 c0 05 	sts	0x05C0, r1
    3d5e:	20 93 c9 05 	sts	0x05C9, r18
    3d62:	20 93 25 03 	sts	0x0325, r18
    3d66:	81 e0       	ldi	r24, 0x01	; 1
    3d68:	80 93 bd 02 	sts	0x02BD, r24
    3d6c:	df 91       	pop	r29
    3d6e:	cf 91       	pop	r28
    3d70:	1f 91       	pop	r17
    3d72:	0f 91       	pop	r16
    3d74:	08 95       	ret

00003d76 <unpacknote>:
    3d76:	df 93       	push	r29
    3d78:	cf 93       	push	r28
    3d7a:	00 d0       	rcall	.+0      	; 0x3d7c <unpacknote+0x6>
    3d7c:	0f 92       	push	r0
    3d7e:	cd b7       	in	r28, 0x3d	; 61
    3d80:	de b7       	in	r29, 0x3e	; 62
    3d82:	db 01       	movw	r26, r22
    3d84:	fc 01       	movw	r30, r24
    3d86:	e8 59       	subi	r30, 0x98	; 152
    3d88:	ff 4f       	sbci	r31, 0xFF	; 255
    3d8a:	24 91       	lpm	r18, Z+
    3d8c:	fc 01       	movw	r30, r24
    3d8e:	e7 59       	subi	r30, 0x97	; 151
    3d90:	ff 4f       	sbci	r31, 0xFF	; 255
    3d92:	44 91       	lpm	r20, Z+
    3d94:	86 59       	subi	r24, 0x96	; 150
    3d96:	9f 4f       	sbci	r25, 0xFF	; 255
    3d98:	fc 01       	movw	r30, r24
    3d9a:	84 91       	lpm	r24, Z+
    3d9c:	92 2f       	mov	r25, r18
    3d9e:	96 95       	lsr	r25
    3da0:	96 95       	lsr	r25
    3da2:	9c 93       	st	X, r25
    3da4:	30 e0       	ldi	r19, 0x00	; 0
    3da6:	23 70       	andi	r18, 0x03	; 3
    3da8:	30 70       	andi	r19, 0x00	; 0
    3daa:	22 0f       	add	r18, r18
    3dac:	33 1f       	adc	r19, r19
    3dae:	22 0f       	add	r18, r18
    3db0:	33 1f       	adc	r19, r19
    3db2:	94 2f       	mov	r25, r20
    3db4:	92 95       	swap	r25
    3db6:	96 95       	lsr	r25
    3db8:	96 95       	lsr	r25
    3dba:	93 70       	andi	r25, 0x03	; 3
    3dbc:	92 2b       	or	r25, r18
    3dbe:	11 96       	adiw	r26, 0x01	; 1
    3dc0:	9c 93       	st	X, r25
    3dc2:	11 97       	sbiw	r26, 0x01	; 1
    3dc4:	46 95       	lsr	r20
    3dc6:	4f 71       	andi	r20, 0x1F	; 31
    3dc8:	12 96       	adiw	r26, 0x02	; 2
    3dca:	4c 93       	st	X, r20
    3dcc:	12 97       	sbiw	r26, 0x02	; 2
    3dce:	13 96       	adiw	r26, 0x03	; 3
    3dd0:	8c 93       	st	X, r24
    3dd2:	13 97       	sbiw	r26, 0x03	; 3
    3dd4:	0f 90       	pop	r0
    3dd6:	0f 90       	pop	r0
    3dd8:	0f 90       	pop	r0
    3dda:	cf 91       	pop	r28
    3ddc:	df 91       	pop	r29
    3dde:	08 95       	ret

00003de0 <playnote>:
    3de0:	cf 93       	push	r28
    3de2:	df 93       	push	r29
    3de4:	dc 01       	movw	r26, r24
    3de6:	cd 91       	ld	r28, X+
    3de8:	dc 91       	ld	r29, X
    3dea:	11 97       	sbiw	r26, 0x01	; 1
    3dec:	88 81       	ld	r24, Y
    3dee:	8f 3f       	cpi	r24, 0xFF	; 255
    3df0:	09 f4       	brne	.+2      	; 0x3df4 <playnote+0x14>
    3df2:	57 c0       	rjmp	.+174    	; 0x3ea2 <playnote+0xc2>
    3df4:	90 e0       	ldi	r25, 0x00	; 0
    3df6:	eb 81       	ldd	r30, Y+3	; 0x03
    3df8:	f0 e0       	ldi	r31, 0x00	; 0
    3dfa:	ee 0f       	add	r30, r30
    3dfc:	ff 1f       	adc	r31, r31
    3dfe:	ee 5b       	subi	r30, 0xBE	; 190
    3e00:	fe 4f       	sbci	r31, 0xFE	; 254
    3e02:	20 81       	ld	r18, Z
    3e04:	31 81       	ldd	r19, Z+1	; 0x01
    3e06:	3f 83       	std	Y+7, r19	; 0x07
    3e08:	2e 83       	std	Y+6, r18	; 0x06
    3e0a:	43 e0       	ldi	r20, 0x03	; 3
    3e0c:	29 35       	cpi	r18, 0x59	; 89
    3e0e:	34 07       	cpc	r19, r20
    3e10:	20 f0       	brcs	.+8      	; 0x3e1a <playnote+0x3a>
    3e12:	28 e5       	ldi	r18, 0x58	; 88
    3e14:	33 e0       	ldi	r19, 0x03	; 3
    3e16:	3f 83       	std	Y+7, r19	; 0x07
    3e18:	2e 83       	std	Y+6, r18	; 0x06
    3e1a:	12 96       	adiw	r26, 0x02	; 2
    3e1c:	ed 91       	ld	r30, X+
    3e1e:	fc 91       	ld	r31, X
    3e20:	13 97       	sbiw	r26, 0x03	; 3
    3e22:	ec 01       	movw	r28, r24
    3e24:	cc 0f       	add	r28, r28
    3e26:	dd 1f       	adc	r29, r29
    3e28:	ce 52       	subi	r28, 0x2E	; 46
    3e2a:	da 4f       	sbci	r29, 0xFA	; 250
    3e2c:	28 81       	ld	r18, Y
    3e2e:	39 81       	ldd	r19, Y+1	; 0x01
    3e30:	31 83       	std	Z+1, r19	; 0x01
    3e32:	20 83       	st	Z, r18
    3e34:	12 82       	std	Z+2, r1	; 0x02
    3e36:	13 82       	std	Z+3, r1	; 0x03
    3e38:	14 82       	std	Z+4, r1	; 0x04
    3e3a:	15 82       	std	Z+5, r1	; 0x05
    3e3c:	18 96       	adiw	r26, 0x08	; 8
    3e3e:	2c 91       	ld	r18, X
    3e40:	18 97       	sbiw	r26, 0x08	; 8
    3e42:	22 60       	ori	r18, 0x02	; 2
    3e44:	18 96       	adiw	r26, 0x08	; 8
    3e46:	2c 93       	st	X, r18
    3e48:	dc 01       	movw	r26, r24
    3e4a:	aa 0f       	add	r26, r26
    3e4c:	bb 1f       	adc	r27, r27
    3e4e:	aa 0f       	add	r26, r26
    3e50:	bb 1f       	adc	r27, r27
    3e52:	aa 0f       	add	r26, r26
    3e54:	bb 1f       	adc	r27, r27
    3e56:	a2 54       	subi	r26, 0x42	; 66
    3e58:	be 4f       	sbci	r27, 0xFE	; 254
    3e5a:	16 96       	adiw	r26, 0x06	; 6
    3e5c:	8d 91       	ld	r24, X+
    3e5e:	9c 91       	ld	r25, X
    3e60:	17 97       	sbiw	r26, 0x07	; 7
    3e62:	00 97       	sbiw	r24, 0x00	; 0
    3e64:	09 f5       	brne	.+66     	; 0x3ea8 <playnote+0xc8>
    3e66:	2d 91       	ld	r18, X+
    3e68:	3c 91       	ld	r19, X
    3e6a:	40 e0       	ldi	r20, 0x00	; 0
    3e6c:	50 e0       	ldi	r21, 0x00	; 0
    3e6e:	69 e0       	ldi	r22, 0x09	; 9
    3e70:	22 0f       	add	r18, r18
    3e72:	33 1f       	adc	r19, r19
    3e74:	44 1f       	adc	r20, r20
    3e76:	55 1f       	adc	r21, r21
    3e78:	6a 95       	dec	r22
    3e7a:	d1 f7       	brne	.-12     	; 0x3e70 <playnote+0x90>
    3e7c:	22 87       	std	Z+10, r18	; 0x0a
    3e7e:	33 87       	std	Z+11, r19	; 0x0b
    3e80:	44 87       	std	Z+12, r20	; 0x0c
    3e82:	55 87       	std	Z+13, r21	; 0x0d
    3e84:	aa 27       	eor	r26, r26
    3e86:	97 fd       	sbrc	r25, 7
    3e88:	a0 95       	com	r26
    3e8a:	ba 2f       	mov	r27, r26
    3e8c:	29 e0       	ldi	r18, 0x09	; 9
    3e8e:	88 0f       	add	r24, r24
    3e90:	99 1f       	adc	r25, r25
    3e92:	aa 1f       	adc	r26, r26
    3e94:	bb 1f       	adc	r27, r27
    3e96:	2a 95       	dec	r18
    3e98:	d1 f7       	brne	.-12     	; 0x3e8e <playnote+0xae>
    3e9a:	86 87       	std	Z+14, r24	; 0x0e
    3e9c:	97 87       	std	Z+15, r25	; 0x0f
    3e9e:	a0 8b       	std	Z+16, r26	; 0x10
    3ea0:	b1 8b       	std	Z+17, r27	; 0x11
    3ea2:	df 91       	pop	r29
    3ea4:	cf 91       	pop	r28
    3ea6:	08 95       	ret
    3ea8:	14 96       	adiw	r26, 0x04	; 4
    3eaa:	2d 91       	ld	r18, X+
    3eac:	3c 91       	ld	r19, X
    3eae:	15 97       	sbiw	r26, 0x05	; 5
    3eb0:	28 0f       	add	r18, r24
    3eb2:	39 1f       	adc	r19, r25
    3eb4:	44 27       	eor	r20, r20
    3eb6:	37 fd       	sbrc	r19, 7
    3eb8:	40 95       	com	r20
    3eba:	54 2f       	mov	r21, r20
    3ebc:	79 e0       	ldi	r23, 0x09	; 9
    3ebe:	22 0f       	add	r18, r18
    3ec0:	33 1f       	adc	r19, r19
    3ec2:	44 1f       	adc	r20, r20
    3ec4:	55 1f       	adc	r21, r21
    3ec6:	7a 95       	dec	r23
    3ec8:	d1 f7       	brne	.-12     	; 0x3ebe <playnote+0xde>
    3eca:	d8 cf       	rjmp	.-80     	; 0x3e7c <playnote+0x9c>

00003ecc <update>:
    3ecc:	cf 93       	push	r28
    3ece:	df 93       	push	r29
    3ed0:	fc 01       	movw	r30, r24
    3ed2:	84 81       	ldd	r24, Z+4	; 0x04
    3ed4:	8f 33       	cpi	r24, 0x3F	; 63
    3ed6:	09 f4       	brne	.+2      	; 0x3eda <update+0xe>
    3ed8:	b5 c0       	rjmp	.+362    	; 0x4044 <update+0x178>
    3eda:	20 85       	ldd	r18, Z+8	; 0x08
    3edc:	24 fd       	sbrc	r18, 4
    3ede:	49 c0       	rjmp	.+146    	; 0x3f72 <update+0xa6>
    3ee0:	20 ff       	sbrs	r18, 0
    3ee2:	09 c0       	rjmp	.+18     	; 0x3ef6 <update+0x2a>
    3ee4:	a2 81       	ldd	r26, Z+2	; 0x02
    3ee6:	b3 81       	ldd	r27, Z+3	; 0x03
    3ee8:	c0 81       	ld	r28, Z
    3eea:	d1 81       	ldd	r29, Z+1	; 0x01
    3eec:	89 81       	ldd	r24, Y+1	; 0x01
    3eee:	18 96       	adiw	r26, 0x08	; 8
    3ef0:	8c 93       	st	X, r24
    3ef2:	18 97       	sbiw	r26, 0x08	; 8
    3ef4:	20 85       	ldd	r18, Z+8	; 0x08
    3ef6:	23 ff       	sbrs	r18, 3
    3ef8:	09 c0       	rjmp	.+18     	; 0x3f0c <update+0x40>
    3efa:	a2 81       	ldd	r26, Z+2	; 0x02
    3efc:	b3 81       	ldd	r27, Z+3	; 0x03
    3efe:	c0 81       	ld	r28, Z
    3f00:	d1 81       	ldd	r29, Z+1	; 0x01
    3f02:	8a 81       	ldd	r24, Y+2	; 0x02
    3f04:	19 96       	adiw	r26, 0x09	; 9
    3f06:	8c 93       	st	X, r24
    3f08:	19 97       	sbiw	r26, 0x09	; 9
    3f0a:	20 85       	ldd	r18, Z+8	; 0x08
    3f0c:	21 ff       	sbrs	r18, 1
    3f0e:	1c c0       	rjmp	.+56     	; 0x3f48 <update+0x7c>
    3f10:	a0 81       	ld	r26, Z
    3f12:	b1 81       	ldd	r27, Z+1	; 0x01
    3f14:	16 96       	adiw	r26, 0x06	; 6
    3f16:	2d 91       	ld	r18, X+
    3f18:	3c 91       	ld	r19, X
    3f1a:	17 97       	sbiw	r26, 0x07	; 7
    3f1c:	53 96       	adiw	r26, 0x13	; 19
    3f1e:	8d 91       	ld	r24, X+
    3f20:	9c 91       	ld	r25, X
    3f22:	54 97       	sbiw	r26, 0x14	; 20
    3f24:	00 97       	sbiw	r24, 0x00	; 0
    3f26:	99 f4       	brne	.+38     	; 0x3f4e <update+0x82>
    3f28:	40 e0       	ldi	r20, 0x00	; 0
    3f2a:	50 e0       	ldi	r21, 0x00	; 0
    3f2c:	c2 81       	ldd	r28, Z+2	; 0x02
    3f2e:	d3 81       	ldd	r29, Z+3	; 0x03
    3f30:	60 91 ce 02 	lds	r22, 0x02CE
    3f34:	70 91 cf 02 	lds	r23, 0x02CF
    3f38:	80 91 d0 02 	lds	r24, 0x02D0
    3f3c:	90 91 d1 02 	lds	r25, 0x02D1
    3f40:	0e 94 dc 2e 	call	0x5db8	; 0x5db8 <__udivmodsi4>
    3f44:	3f 83       	std	Y+7, r19	; 0x07
    3f46:	2e 83       	std	Y+6, r18	; 0x06
    3f48:	df 91       	pop	r29
    3f4a:	cf 91       	pop	r28
    3f4c:	08 95       	ret
    3f4e:	28 0f       	add	r18, r24
    3f50:	39 1f       	adc	r19, r25
    3f52:	43 e0       	ldi	r20, 0x03	; 3
    3f54:	29 35       	cpi	r18, 0x59	; 89
    3f56:	34 07       	cpc	r19, r20
    3f58:	0c f0       	brlt	.+2      	; 0x3f5c <update+0x90>
    3f5a:	76 c0       	rjmp	.+236    	; 0x4048 <update+0x17c>
    3f5c:	21 37       	cpi	r18, 0x71	; 113
    3f5e:	31 05       	cpc	r19, r1
    3f60:	0c f4       	brge	.+2      	; 0x3f64 <update+0x98>
    3f62:	83 c0       	rjmp	.+262    	; 0x406a <update+0x19e>
    3f64:	40 e0       	ldi	r20, 0x00	; 0
    3f66:	50 e0       	ldi	r21, 0x00	; 0
    3f68:	54 96       	adiw	r26, 0x14	; 20
    3f6a:	1c 92       	st	X, r1
    3f6c:	1e 92       	st	-X, r1
    3f6e:	53 97       	sbiw	r26, 0x13	; 19
    3f70:	dd cf       	rjmp	.-70     	; 0x3f2c <update+0x60>
    3f72:	80 81       	ld	r24, Z
    3f74:	91 81       	ldd	r25, Z+1	; 0x01
    3f76:	dc 01       	movw	r26, r24
    3f78:	3c 91       	ld	r19, X
    3f7a:	3f 3f       	cpi	r19, 0xFF	; 255
    3f7c:	09 f4       	brne	.+2      	; 0x3f80 <update+0xb4>
    3f7e:	b0 cf       	rjmp	.-160    	; 0x3ee0 <update+0x14>
    3f80:	63 2f       	mov	r22, r19
    3f82:	70 e0       	ldi	r23, 0x00	; 0
    3f84:	13 96       	adiw	r26, 0x03	; 3
    3f86:	2c 91       	ld	r18, X
    3f88:	a2 2f       	mov	r26, r18
    3f8a:	b0 e0       	ldi	r27, 0x00	; 0
    3f8c:	aa 0f       	add	r26, r26
    3f8e:	bb 1f       	adc	r27, r27
    3f90:	ae 5b       	subi	r26, 0xBE	; 190
    3f92:	be 4f       	sbci	r27, 0xFE	; 254
    3f94:	2d 91       	ld	r18, X+
    3f96:	3c 91       	ld	r19, X
    3f98:	11 97       	sbiw	r26, 0x01	; 1
    3f9a:	ec 01       	movw	r28, r24
    3f9c:	3f 83       	std	Y+7, r19	; 0x07
    3f9e:	2e 83       	std	Y+6, r18	; 0x06
    3fa0:	43 e0       	ldi	r20, 0x03	; 3
    3fa2:	29 35       	cpi	r18, 0x59	; 89
    3fa4:	34 07       	cpc	r19, r20
    3fa6:	20 f0       	brcs	.+8      	; 0x3fb0 <update+0xe4>
    3fa8:	28 e5       	ldi	r18, 0x58	; 88
    3faa:	33 e0       	ldi	r19, 0x03	; 3
    3fac:	3f 83       	std	Y+7, r19	; 0x07
    3fae:	2e 83       	std	Y+6, r18	; 0x06
    3fb0:	a2 81       	ldd	r26, Z+2	; 0x02
    3fb2:	b3 81       	ldd	r27, Z+3	; 0x03
    3fb4:	cb 01       	movw	r24, r22
    3fb6:	88 0f       	add	r24, r24
    3fb8:	99 1f       	adc	r25, r25
    3fba:	8e 52       	subi	r24, 0x2E	; 46
    3fbc:	9a 4f       	sbci	r25, 0xFA	; 250
    3fbe:	ec 01       	movw	r28, r24
    3fc0:	88 81       	ld	r24, Y
    3fc2:	99 81       	ldd	r25, Y+1	; 0x01
    3fc4:	11 96       	adiw	r26, 0x01	; 1
    3fc6:	9c 93       	st	X, r25
    3fc8:	8e 93       	st	-X, r24
    3fca:	12 96       	adiw	r26, 0x02	; 2
    3fcc:	1d 92       	st	X+, r1
    3fce:	1d 92       	st	X+, r1
    3fd0:	1d 92       	st	X+, r1
    3fd2:	1c 92       	st	X, r1
    3fd4:	15 97       	sbiw	r26, 0x05	; 5
    3fd6:	80 85       	ldd	r24, Z+8	; 0x08
    3fd8:	82 60       	ori	r24, 0x02	; 2
    3fda:	80 87       	std	Z+8, r24	; 0x08
    3fdc:	eb 01       	movw	r28, r22
    3fde:	cc 0f       	add	r28, r28
    3fe0:	dd 1f       	adc	r29, r29
    3fe2:	cc 0f       	add	r28, r28
    3fe4:	dd 1f       	adc	r29, r29
    3fe6:	cc 0f       	add	r28, r28
    3fe8:	dd 1f       	adc	r29, r29
    3fea:	c2 54       	subi	r28, 0x42	; 66
    3fec:	de 4f       	sbci	r29, 0xFE	; 254
    3fee:	2e 81       	ldd	r18, Y+6	; 0x06
    3ff0:	3f 81       	ldd	r19, Y+7	; 0x07
    3ff2:	21 15       	cp	r18, r1
    3ff4:	31 05       	cpc	r19, r1
    3ff6:	69 f1       	breq	.+90     	; 0x4052 <update+0x186>
    3ff8:	4c 81       	ldd	r20, Y+4	; 0x04
    3ffa:	5d 81       	ldd	r21, Y+5	; 0x05
    3ffc:	42 0f       	add	r20, r18
    3ffe:	53 1f       	adc	r21, r19
    4000:	66 27       	eor	r22, r22
    4002:	57 fd       	sbrc	r21, 7
    4004:	60 95       	com	r22
    4006:	76 2f       	mov	r23, r22
    4008:	99 e0       	ldi	r25, 0x09	; 9
    400a:	44 0f       	add	r20, r20
    400c:	55 1f       	adc	r21, r21
    400e:	66 1f       	adc	r22, r22
    4010:	77 1f       	adc	r23, r23
    4012:	9a 95       	dec	r25
    4014:	d1 f7       	brne	.-12     	; 0x400a <update+0x13e>
    4016:	1a 96       	adiw	r26, 0x0a	; 10
    4018:	4d 93       	st	X+, r20
    401a:	5d 93       	st	X+, r21
    401c:	6d 93       	st	X+, r22
    401e:	7c 93       	st	X, r23
    4020:	1d 97       	sbiw	r26, 0x0d	; 13
    4022:	44 27       	eor	r20, r20
    4024:	37 fd       	sbrc	r19, 7
    4026:	40 95       	com	r20
    4028:	54 2f       	mov	r21, r20
    402a:	69 e0       	ldi	r22, 0x09	; 9
    402c:	22 0f       	add	r18, r18
    402e:	33 1f       	adc	r19, r19
    4030:	44 1f       	adc	r20, r20
    4032:	55 1f       	adc	r21, r21
    4034:	6a 95       	dec	r22
    4036:	d1 f7       	brne	.-12     	; 0x402c <update+0x160>
    4038:	1e 96       	adiw	r26, 0x0e	; 14
    403a:	2d 93       	st	X+, r18
    403c:	3d 93       	st	X+, r19
    403e:	4d 93       	st	X+, r20
    4040:	5c 93       	st	X, r21
    4042:	51 97       	sbiw	r26, 0x11	; 17
    4044:	20 85       	ldd	r18, Z+8	; 0x08
    4046:	4c cf       	rjmp	.-360    	; 0x3ee0 <update+0x14>
    4048:	28 e5       	ldi	r18, 0x58	; 88
    404a:	33 e0       	ldi	r19, 0x03	; 3
    404c:	40 e0       	ldi	r20, 0x00	; 0
    404e:	50 e0       	ldi	r21, 0x00	; 0
    4050:	8b cf       	rjmp	.-234    	; 0x3f68 <update+0x9c>
    4052:	48 81       	ld	r20, Y
    4054:	59 81       	ldd	r21, Y+1	; 0x01
    4056:	60 e0       	ldi	r22, 0x00	; 0
    4058:	70 e0       	ldi	r23, 0x00	; 0
    405a:	89 e0       	ldi	r24, 0x09	; 9
    405c:	44 0f       	add	r20, r20
    405e:	55 1f       	adc	r21, r21
    4060:	66 1f       	adc	r22, r22
    4062:	77 1f       	adc	r23, r23
    4064:	8a 95       	dec	r24
    4066:	d1 f7       	brne	.-12     	; 0x405c <update+0x190>
    4068:	d6 cf       	rjmp	.-84     	; 0x4016 <update+0x14a>
    406a:	21 e7       	ldi	r18, 0x71	; 113
    406c:	30 e0       	ldi	r19, 0x00	; 0
    406e:	40 e0       	ldi	r20, 0x00	; 0
    4070:	50 e0       	ldi	r21, 0x00	; 0
    4072:	7a cf       	rjmp	.-268    	; 0x3f68 <update+0x9c>

00004074 <row>:
    4074:	ef 92       	push	r14
    4076:	ff 92       	push	r15
    4078:	0f 93       	push	r16
    407a:	1f 93       	push	r17
    407c:	df 93       	push	r29
    407e:	cf 93       	push	r28
    4080:	cd b7       	in	r28, 0x3d	; 61
    4082:	de b7       	in	r29, 0x3e	; 62
    4084:	29 97       	sbiw	r28, 0x09	; 9
    4086:	0f b6       	in	r0, 0x3f	; 63
    4088:	f8 94       	cli
    408a:	de bf       	out	0x3e, r29	; 62
    408c:	0f be       	out	0x3f, r0	; 63
    408e:	cd bf       	out	0x3d, r28	; 61
    4090:	20 91 88 05 	lds	r18, 0x0588
    4094:	30 91 89 05 	lds	r19, 0x0589
    4098:	8e 01       	movw	r16, r28
    409a:	0f 5f       	subi	r16, 0xFF	; 255
    409c:	1f 4f       	sbci	r17, 0xFF	; 255
    409e:	d8 01       	movw	r26, r16
    40a0:	ec e8       	ldi	r30, 0x8C	; 140
    40a2:	f1 e0       	ldi	r31, 0x01	; 1
    40a4:	89 e0       	ldi	r24, 0x09	; 9
    40a6:	01 90       	ld	r0, Z+
    40a8:	0d 92       	st	X+, r0
    40aa:	81 50       	subi	r24, 0x01	; 1
    40ac:	e1 f7       	brne	.-8      	; 0x40a6 <row+0x32>
    40ae:	82 ed       	ldi	r24, 0xD2	; 210
    40b0:	92 e0       	ldi	r25, 0x02	; 2
    40b2:	9a 83       	std	Y+2, r25	; 0x02
    40b4:	89 83       	std	Y+1, r24	; 0x01
    40b6:	8a e8       	ldi	r24, 0x8A	; 138
    40b8:	95 e0       	ldi	r25, 0x05	; 5
    40ba:	9c 83       	std	Y+4, r25	; 0x04
    40bc:	8b 83       	std	Y+3, r24	; 0x03
    40be:	80 91 86 05 	lds	r24, 0x0586
    40c2:	90 91 87 05 	lds	r25, 0x0587
    40c6:	82 0f       	add	r24, r18
    40c8:	93 1f       	adc	r25, r19
    40ca:	fc 01       	movw	r30, r24
    40cc:	e8 59       	subi	r30, 0x98	; 152
    40ce:	ff 4f       	sbci	r31, 0xFF	; 255
    40d0:	34 91       	lpm	r19, Z+
    40d2:	fc 01       	movw	r30, r24
    40d4:	e7 59       	subi	r30, 0x97	; 151
    40d6:	ff 4f       	sbci	r31, 0xFF	; 255
    40d8:	24 91       	lpm	r18, Z+
    40da:	fc 01       	movw	r30, r24
    40dc:	e6 59       	subi	r30, 0x96	; 150
    40de:	ff 4f       	sbci	r31, 0xFF	; 255
    40e0:	54 91       	lpm	r21, Z+
    40e2:	43 2f       	mov	r20, r19
    40e4:	46 95       	lsr	r20
    40e6:	46 95       	lsr	r20
    40e8:	4d 83       	std	Y+5, r20	; 0x05
    40ea:	83 2f       	mov	r24, r19
    40ec:	90 e0       	ldi	r25, 0x00	; 0
    40ee:	83 70       	andi	r24, 0x03	; 3
    40f0:	90 70       	andi	r25, 0x00	; 0
    40f2:	88 0f       	add	r24, r24
    40f4:	99 1f       	adc	r25, r25
    40f6:	88 0f       	add	r24, r24
    40f8:	99 1f       	adc	r25, r25
    40fa:	e2 2f       	mov	r30, r18
    40fc:	e2 95       	swap	r30
    40fe:	e6 95       	lsr	r30
    4100:	e6 95       	lsr	r30
    4102:	e3 70       	andi	r30, 0x03	; 3
    4104:	e8 2b       	or	r30, r24
    4106:	ee 83       	std	Y+6, r30	; 0x06
    4108:	26 95       	lsr	r18
    410a:	2f 71       	andi	r18, 0x1F	; 31
    410c:	2f 83       	std	Y+7, r18	; 0x07
    410e:	58 87       	std	Y+8, r21	; 0x08
    4110:	e0 93 d6 02 	sts	0x02D6, r30
    4114:	50 93 d7 02 	sts	0x02D7, r21
    4118:	22 23       	and	r18, r18
    411a:	a9 f0       	breq	.+42     	; 0x4146 <row+0xd2>
    411c:	21 50       	subi	r18, 0x01	; 1
    411e:	20 93 d2 02 	sts	0x02D2, r18
    4122:	a2 2f       	mov	r26, r18
    4124:	b0 e0       	ldi	r27, 0x00	; 0
    4126:	aa 0f       	add	r26, r26
    4128:	bb 1f       	adc	r27, r27
    412a:	aa 0f       	add	r26, r26
    412c:	bb 1f       	adc	r27, r27
    412e:	aa 0f       	add	r26, r26
    4130:	bb 1f       	adc	r27, r27
    4132:	a2 54       	subi	r26, 0x42	; 66
    4134:	be 4f       	sbci	r27, 0xFE	; 254
    4136:	13 96       	adiw	r26, 0x03	; 3
    4138:	8c 91       	ld	r24, X
    413a:	13 97       	sbiw	r26, 0x03	; 3
    413c:	80 93 d3 02 	sts	0x02D3, r24
    4140:	89 85       	ldd	r24, Y+9	; 0x09
    4142:	81 60       	ori	r24, 0x01	; 1
    4144:	89 87       	std	Y+9, r24	; 0x09
    4146:	4f 33       	cpi	r20, 0x3F	; 63
    4148:	11 f0       	breq	.+4      	; 0x414e <row+0xda>
    414a:	40 93 d5 02 	sts	0x02D5, r20
    414e:	80 91 da 02 	lds	r24, 0x02DA
    4152:	88 23       	and	r24, r24
    4154:	99 f0       	breq	.+38     	; 0x417c <row+0x108>
    4156:	10 92 da 02 	sts	0x02DA, r1
    415a:	a0 91 d5 02 	lds	r26, 0x02D5
    415e:	b0 e0       	ldi	r27, 0x00	; 0
    4160:	aa 0f       	add	r26, r26
    4162:	bb 1f       	adc	r27, r27
    4164:	ae 5b       	subi	r26, 0xBE	; 190
    4166:	be 4f       	sbci	r27, 0xFE	; 254
    4168:	8d 91       	ld	r24, X+
    416a:	9c 91       	ld	r25, X
    416c:	11 97       	sbiw	r26, 0x01	; 1
    416e:	90 93 d9 02 	sts	0x02D9, r25
    4172:	80 93 d8 02 	sts	0x02D8, r24
    4176:	89 85       	ldd	r24, Y+9	; 0x09
    4178:	82 60       	ori	r24, 0x02	; 2
    417a:	89 87       	std	Y+9, r24	; 0x09
    417c:	ee 23       	and	r30, r30
    417e:	11 f4       	brne	.+4      	; 0x4184 <row+0x110>
    4180:	55 23       	and	r21, r21
    4182:	69 f0       	breq	.+26     	; 0x419e <row+0x12a>
    4184:	f0 e0       	ldi	r31, 0x00	; 0
    4186:	ee 0f       	add	r30, r30
    4188:	ff 1f       	adc	r31, r31
    418a:	e0 50       	subi	r30, 0x00	; 0
    418c:	ff 4f       	sbci	r31, 0xFF	; 255
    418e:	01 90       	ld	r0, Z+
    4190:	f0 81       	ld	r31, Z
    4192:	e0 2d       	mov	r30, r0
    4194:	30 97       	sbiw	r30, 0x00	; 0
    4196:	19 f0       	breq	.+6      	; 0x419e <row+0x12a>
    4198:	c8 01       	movw	r24, r16
    419a:	09 95       	icall
    419c:	4d 81       	ldd	r20, Y+5	; 0x05
    419e:	4f 33       	cpi	r20, 0x3F	; 63
    41a0:	09 f4       	brne	.+2      	; 0x41a4 <row+0x130>
    41a2:	ca c2       	rjmp	.+1428   	; 0x4738 <row+0x6c4>
    41a4:	99 85       	ldd	r25, Y+9	; 0x09
    41a6:	94 fd       	sbrc	r25, 4
    41a8:	33 c3       	rjmp	.+1638   	; 0x4810 <row+0x79c>
    41aa:	90 ff       	sbrs	r25, 0
    41ac:	09 c0       	rjmp	.+18     	; 0x41c0 <row+0x14c>
    41ae:	eb 81       	ldd	r30, Y+3	; 0x03
    41b0:	fc 81       	ldd	r31, Y+4	; 0x04
    41b2:	a9 81       	ldd	r26, Y+1	; 0x01
    41b4:	ba 81       	ldd	r27, Y+2	; 0x02
    41b6:	11 96       	adiw	r26, 0x01	; 1
    41b8:	8c 91       	ld	r24, X
    41ba:	11 97       	sbiw	r26, 0x01	; 1
    41bc:	80 87       	std	Z+8, r24	; 0x08
    41be:	99 85       	ldd	r25, Y+9	; 0x09
    41c0:	93 ff       	sbrs	r25, 3
    41c2:	08 c0       	rjmp	.+16     	; 0x41d4 <row+0x160>
    41c4:	eb 81       	ldd	r30, Y+3	; 0x03
    41c6:	fc 81       	ldd	r31, Y+4	; 0x04
    41c8:	a9 81       	ldd	r26, Y+1	; 0x01
    41ca:	ba 81       	ldd	r27, Y+2	; 0x02
    41cc:	12 96       	adiw	r26, 0x02	; 2
    41ce:	8c 91       	ld	r24, X
    41d0:	12 97       	sbiw	r26, 0x02	; 2
    41d2:	81 87       	std	Z+9, r24	; 0x09
    41d4:	91 ff       	sbrs	r25, 1
    41d6:	1a c0       	rjmp	.+52     	; 0x420c <row+0x198>
    41d8:	e9 81       	ldd	r30, Y+1	; 0x01
    41da:	fa 81       	ldd	r31, Y+2	; 0x02
    41dc:	26 81       	ldd	r18, Z+6	; 0x06
    41de:	37 81       	ldd	r19, Z+7	; 0x07
    41e0:	83 89       	ldd	r24, Z+19	; 0x13
    41e2:	94 89       	ldd	r25, Z+20	; 0x14
    41e4:	00 97       	sbiw	r24, 0x00	; 0
    41e6:	09 f0       	breq	.+2      	; 0x41ea <row+0x176>
    41e8:	95 c2       	rjmp	.+1322   	; 0x4714 <row+0x6a0>
    41ea:	40 e0       	ldi	r20, 0x00	; 0
    41ec:	50 e0       	ldi	r21, 0x00	; 0
    41ee:	eb 80       	ldd	r14, Y+3	; 0x03
    41f0:	fc 80       	ldd	r15, Y+4	; 0x04
    41f2:	60 91 ce 02 	lds	r22, 0x02CE
    41f6:	70 91 cf 02 	lds	r23, 0x02CF
    41fa:	80 91 d0 02 	lds	r24, 0x02D0
    41fe:	90 91 d1 02 	lds	r25, 0x02D1
    4202:	0e 94 dc 2e 	call	0x5db8	; 0x5db8 <__udivmodsi4>
    4206:	f7 01       	movw	r30, r14
    4208:	37 83       	std	Z+7, r19	; 0x07
    420a:	26 83       	std	Z+6, r18	; 0x06
    420c:	20 91 88 05 	lds	r18, 0x0588
    4210:	30 91 89 05 	lds	r19, 0x0589
    4214:	2d 5f       	subi	r18, 0xFD	; 253
    4216:	3f 4f       	sbci	r19, 0xFF	; 255
    4218:	30 93 89 05 	sts	0x0589, r19
    421c:	20 93 88 05 	sts	0x0588, r18
    4220:	d8 01       	movw	r26, r16
    4222:	ec e8       	ldi	r30, 0x8C	; 140
    4224:	f1 e0       	ldi	r31, 0x01	; 1
    4226:	89 e0       	ldi	r24, 0x09	; 9
    4228:	01 90       	ld	r0, Z+
    422a:	0d 92       	st	X+, r0
    422c:	81 50       	subi	r24, 0x01	; 1
    422e:	e1 f7       	brne	.-8      	; 0x4228 <row+0x1b4>
    4230:	8d ee       	ldi	r24, 0xED	; 237
    4232:	92 e0       	ldi	r25, 0x02	; 2
    4234:	9a 83       	std	Y+2, r25	; 0x02
    4236:	89 83       	std	Y+1, r24	; 0x01
    4238:	8c e9       	ldi	r24, 0x9C	; 156
    423a:	95 e0       	ldi	r25, 0x05	; 5
    423c:	9c 83       	std	Y+4, r25	; 0x04
    423e:	8b 83       	std	Y+3, r24	; 0x03
    4240:	80 91 86 05 	lds	r24, 0x0586
    4244:	90 91 87 05 	lds	r25, 0x0587
    4248:	82 0f       	add	r24, r18
    424a:	93 1f       	adc	r25, r19
    424c:	fc 01       	movw	r30, r24
    424e:	e8 59       	subi	r30, 0x98	; 152
    4250:	ff 4f       	sbci	r31, 0xFF	; 255
    4252:	34 91       	lpm	r19, Z+
    4254:	fc 01       	movw	r30, r24
    4256:	e7 59       	subi	r30, 0x97	; 151
    4258:	ff 4f       	sbci	r31, 0xFF	; 255
    425a:	24 91       	lpm	r18, Z+
    425c:	fc 01       	movw	r30, r24
    425e:	e6 59       	subi	r30, 0x96	; 150
    4260:	ff 4f       	sbci	r31, 0xFF	; 255
    4262:	54 91       	lpm	r21, Z+
    4264:	43 2f       	mov	r20, r19
    4266:	46 95       	lsr	r20
    4268:	46 95       	lsr	r20
    426a:	4d 83       	std	Y+5, r20	; 0x05
    426c:	83 2f       	mov	r24, r19
    426e:	90 e0       	ldi	r25, 0x00	; 0
    4270:	83 70       	andi	r24, 0x03	; 3
    4272:	90 70       	andi	r25, 0x00	; 0
    4274:	88 0f       	add	r24, r24
    4276:	99 1f       	adc	r25, r25
    4278:	88 0f       	add	r24, r24
    427a:	99 1f       	adc	r25, r25
    427c:	e2 2f       	mov	r30, r18
    427e:	e2 95       	swap	r30
    4280:	e6 95       	lsr	r30
    4282:	e6 95       	lsr	r30
    4284:	e3 70       	andi	r30, 0x03	; 3
    4286:	e8 2b       	or	r30, r24
    4288:	ee 83       	std	Y+6, r30	; 0x06
    428a:	26 95       	lsr	r18
    428c:	2f 71       	andi	r18, 0x1F	; 31
    428e:	2f 83       	std	Y+7, r18	; 0x07
    4290:	58 87       	std	Y+8, r21	; 0x08
    4292:	e0 93 f1 02 	sts	0x02F1, r30
    4296:	50 93 f2 02 	sts	0x02F2, r21
    429a:	22 23       	and	r18, r18
    429c:	a9 f0       	breq	.+42     	; 0x42c8 <row+0x254>
    429e:	21 50       	subi	r18, 0x01	; 1
    42a0:	20 93 ed 02 	sts	0x02ED, r18
    42a4:	a2 2f       	mov	r26, r18
    42a6:	b0 e0       	ldi	r27, 0x00	; 0
    42a8:	aa 0f       	add	r26, r26
    42aa:	bb 1f       	adc	r27, r27
    42ac:	aa 0f       	add	r26, r26
    42ae:	bb 1f       	adc	r27, r27
    42b0:	aa 0f       	add	r26, r26
    42b2:	bb 1f       	adc	r27, r27
    42b4:	a2 54       	subi	r26, 0x42	; 66
    42b6:	be 4f       	sbci	r27, 0xFE	; 254
    42b8:	13 96       	adiw	r26, 0x03	; 3
    42ba:	8c 91       	ld	r24, X
    42bc:	13 97       	sbiw	r26, 0x03	; 3
    42be:	80 93 ee 02 	sts	0x02EE, r24
    42c2:	89 85       	ldd	r24, Y+9	; 0x09
    42c4:	81 60       	ori	r24, 0x01	; 1
    42c6:	89 87       	std	Y+9, r24	; 0x09
    42c8:	4f 33       	cpi	r20, 0x3F	; 63
    42ca:	11 f0       	breq	.+4      	; 0x42d0 <row+0x25c>
    42cc:	40 93 f0 02 	sts	0x02F0, r20
    42d0:	80 91 f5 02 	lds	r24, 0x02F5
    42d4:	88 23       	and	r24, r24
    42d6:	99 f0       	breq	.+38     	; 0x42fe <row+0x28a>
    42d8:	10 92 f5 02 	sts	0x02F5, r1
    42dc:	a0 91 f0 02 	lds	r26, 0x02F0
    42e0:	b0 e0       	ldi	r27, 0x00	; 0
    42e2:	aa 0f       	add	r26, r26
    42e4:	bb 1f       	adc	r27, r27
    42e6:	ae 5b       	subi	r26, 0xBE	; 190
    42e8:	be 4f       	sbci	r27, 0xFE	; 254
    42ea:	8d 91       	ld	r24, X+
    42ec:	9c 91       	ld	r25, X
    42ee:	11 97       	sbiw	r26, 0x01	; 1
    42f0:	90 93 f4 02 	sts	0x02F4, r25
    42f4:	80 93 f3 02 	sts	0x02F3, r24
    42f8:	89 85       	ldd	r24, Y+9	; 0x09
    42fa:	82 60       	ori	r24, 0x02	; 2
    42fc:	89 87       	std	Y+9, r24	; 0x09
    42fe:	ee 23       	and	r30, r30
    4300:	11 f4       	brne	.+4      	; 0x4306 <row+0x292>
    4302:	55 23       	and	r21, r21
    4304:	69 f0       	breq	.+26     	; 0x4320 <row+0x2ac>
    4306:	f0 e0       	ldi	r31, 0x00	; 0
    4308:	ee 0f       	add	r30, r30
    430a:	ff 1f       	adc	r31, r31
    430c:	e0 50       	subi	r30, 0x00	; 0
    430e:	ff 4f       	sbci	r31, 0xFF	; 255
    4310:	01 90       	ld	r0, Z+
    4312:	f0 81       	ld	r31, Z
    4314:	e0 2d       	mov	r30, r0
    4316:	30 97       	sbiw	r30, 0x00	; 0
    4318:	19 f0       	breq	.+6      	; 0x4320 <row+0x2ac>
    431a:	c8 01       	movw	r24, r16
    431c:	09 95       	icall
    431e:	4d 81       	ldd	r20, Y+5	; 0x05
    4320:	4f 33       	cpi	r20, 0x3F	; 63
    4322:	09 f4       	brne	.+2      	; 0x4326 <row+0x2b2>
    4324:	0b c2       	rjmp	.+1046   	; 0x473c <row+0x6c8>
    4326:	99 85       	ldd	r25, Y+9	; 0x09
    4328:	94 fd       	sbrc	r25, 4
    432a:	41 c3       	rjmp	.+1666   	; 0x49ae <row+0x93a>
    432c:	90 ff       	sbrs	r25, 0
    432e:	09 c0       	rjmp	.+18     	; 0x4342 <row+0x2ce>
    4330:	eb 81       	ldd	r30, Y+3	; 0x03
    4332:	fc 81       	ldd	r31, Y+4	; 0x04
    4334:	a9 81       	ldd	r26, Y+1	; 0x01
    4336:	ba 81       	ldd	r27, Y+2	; 0x02
    4338:	11 96       	adiw	r26, 0x01	; 1
    433a:	8c 91       	ld	r24, X
    433c:	11 97       	sbiw	r26, 0x01	; 1
    433e:	80 87       	std	Z+8, r24	; 0x08
    4340:	99 85       	ldd	r25, Y+9	; 0x09
    4342:	93 ff       	sbrs	r25, 3
    4344:	08 c0       	rjmp	.+16     	; 0x4356 <row+0x2e2>
    4346:	eb 81       	ldd	r30, Y+3	; 0x03
    4348:	fc 81       	ldd	r31, Y+4	; 0x04
    434a:	a9 81       	ldd	r26, Y+1	; 0x01
    434c:	ba 81       	ldd	r27, Y+2	; 0x02
    434e:	12 96       	adiw	r26, 0x02	; 2
    4350:	8c 91       	ld	r24, X
    4352:	12 97       	sbiw	r26, 0x02	; 2
    4354:	81 87       	std	Z+9, r24	; 0x09
    4356:	91 ff       	sbrs	r25, 1
    4358:	1a c0       	rjmp	.+52     	; 0x438e <row+0x31a>
    435a:	e9 81       	ldd	r30, Y+1	; 0x01
    435c:	fa 81       	ldd	r31, Y+2	; 0x02
    435e:	26 81       	ldd	r18, Z+6	; 0x06
    4360:	37 81       	ldd	r19, Z+7	; 0x07
    4362:	83 89       	ldd	r24, Z+19	; 0x13
    4364:	94 89       	ldd	r25, Z+20	; 0x14
    4366:	00 97       	sbiw	r24, 0x00	; 0
    4368:	09 f0       	breq	.+2      	; 0x436c <row+0x2f8>
    436a:	c6 c1       	rjmp	.+908    	; 0x46f8 <row+0x684>
    436c:	40 e0       	ldi	r20, 0x00	; 0
    436e:	50 e0       	ldi	r21, 0x00	; 0
    4370:	eb 80       	ldd	r14, Y+3	; 0x03
    4372:	fc 80       	ldd	r15, Y+4	; 0x04
    4374:	60 91 ce 02 	lds	r22, 0x02CE
    4378:	70 91 cf 02 	lds	r23, 0x02CF
    437c:	80 91 d0 02 	lds	r24, 0x02D0
    4380:	90 91 d1 02 	lds	r25, 0x02D1
    4384:	0e 94 dc 2e 	call	0x5db8	; 0x5db8 <__udivmodsi4>
    4388:	f7 01       	movw	r30, r14
    438a:	37 83       	std	Z+7, r19	; 0x07
    438c:	26 83       	std	Z+6, r18	; 0x06
    438e:	20 91 88 05 	lds	r18, 0x0588
    4392:	30 91 89 05 	lds	r19, 0x0589
    4396:	2d 5f       	subi	r18, 0xFD	; 253
    4398:	3f 4f       	sbci	r19, 0xFF	; 255
    439a:	30 93 89 05 	sts	0x0589, r19
    439e:	20 93 88 05 	sts	0x0588, r18
    43a2:	d8 01       	movw	r26, r16
    43a4:	ec e8       	ldi	r30, 0x8C	; 140
    43a6:	f1 e0       	ldi	r31, 0x01	; 1
    43a8:	89 e0       	ldi	r24, 0x09	; 9
    43aa:	01 90       	ld	r0, Z+
    43ac:	0d 92       	st	X+, r0
    43ae:	81 50       	subi	r24, 0x01	; 1
    43b0:	e1 f7       	brne	.-8      	; 0x43aa <row+0x336>
    43b2:	88 e0       	ldi	r24, 0x08	; 8
    43b4:	93 e0       	ldi	r25, 0x03	; 3
    43b6:	9a 83       	std	Y+2, r25	; 0x02
    43b8:	89 83       	std	Y+1, r24	; 0x01
    43ba:	8e ea       	ldi	r24, 0xAE	; 174
    43bc:	95 e0       	ldi	r25, 0x05	; 5
    43be:	9c 83       	std	Y+4, r25	; 0x04
    43c0:	8b 83       	std	Y+3, r24	; 0x03
    43c2:	80 91 86 05 	lds	r24, 0x0586
    43c6:	90 91 87 05 	lds	r25, 0x0587
    43ca:	82 0f       	add	r24, r18
    43cc:	93 1f       	adc	r25, r19
    43ce:	fc 01       	movw	r30, r24
    43d0:	e8 59       	subi	r30, 0x98	; 152
    43d2:	ff 4f       	sbci	r31, 0xFF	; 255
    43d4:	34 91       	lpm	r19, Z+
    43d6:	fc 01       	movw	r30, r24
    43d8:	e7 59       	subi	r30, 0x97	; 151
    43da:	ff 4f       	sbci	r31, 0xFF	; 255
    43dc:	24 91       	lpm	r18, Z+
    43de:	fc 01       	movw	r30, r24
    43e0:	e6 59       	subi	r30, 0x96	; 150
    43e2:	ff 4f       	sbci	r31, 0xFF	; 255
    43e4:	54 91       	lpm	r21, Z+
    43e6:	43 2f       	mov	r20, r19
    43e8:	46 95       	lsr	r20
    43ea:	46 95       	lsr	r20
    43ec:	4d 83       	std	Y+5, r20	; 0x05
    43ee:	83 2f       	mov	r24, r19
    43f0:	90 e0       	ldi	r25, 0x00	; 0
    43f2:	83 70       	andi	r24, 0x03	; 3
    43f4:	90 70       	andi	r25, 0x00	; 0
    43f6:	88 0f       	add	r24, r24
    43f8:	99 1f       	adc	r25, r25
    43fa:	88 0f       	add	r24, r24
    43fc:	99 1f       	adc	r25, r25
    43fe:	e2 2f       	mov	r30, r18
    4400:	e2 95       	swap	r30
    4402:	e6 95       	lsr	r30
    4404:	e6 95       	lsr	r30
    4406:	e3 70       	andi	r30, 0x03	; 3
    4408:	e8 2b       	or	r30, r24
    440a:	ee 83       	std	Y+6, r30	; 0x06
    440c:	26 95       	lsr	r18
    440e:	2f 71       	andi	r18, 0x1F	; 31
    4410:	2f 83       	std	Y+7, r18	; 0x07
    4412:	58 87       	std	Y+8, r21	; 0x08
    4414:	e0 93 0c 03 	sts	0x030C, r30
    4418:	50 93 0d 03 	sts	0x030D, r21
    441c:	22 23       	and	r18, r18
    441e:	a9 f0       	breq	.+42     	; 0x444a <row+0x3d6>
    4420:	21 50       	subi	r18, 0x01	; 1
    4422:	20 93 08 03 	sts	0x0308, r18
    4426:	a2 2f       	mov	r26, r18
    4428:	b0 e0       	ldi	r27, 0x00	; 0
    442a:	aa 0f       	add	r26, r26
    442c:	bb 1f       	adc	r27, r27
    442e:	aa 0f       	add	r26, r26
    4430:	bb 1f       	adc	r27, r27
    4432:	aa 0f       	add	r26, r26
    4434:	bb 1f       	adc	r27, r27
    4436:	a2 54       	subi	r26, 0x42	; 66
    4438:	be 4f       	sbci	r27, 0xFE	; 254
    443a:	13 96       	adiw	r26, 0x03	; 3
    443c:	8c 91       	ld	r24, X
    443e:	13 97       	sbiw	r26, 0x03	; 3
    4440:	80 93 09 03 	sts	0x0309, r24
    4444:	89 85       	ldd	r24, Y+9	; 0x09
    4446:	81 60       	ori	r24, 0x01	; 1
    4448:	89 87       	std	Y+9, r24	; 0x09
    444a:	4f 33       	cpi	r20, 0x3F	; 63
    444c:	11 f0       	breq	.+4      	; 0x4452 <row+0x3de>
    444e:	40 93 0b 03 	sts	0x030B, r20
    4452:	80 91 10 03 	lds	r24, 0x0310
    4456:	88 23       	and	r24, r24
    4458:	99 f0       	breq	.+38     	; 0x4480 <row+0x40c>
    445a:	10 92 10 03 	sts	0x0310, r1
    445e:	a0 91 0b 03 	lds	r26, 0x030B
    4462:	b0 e0       	ldi	r27, 0x00	; 0
    4464:	aa 0f       	add	r26, r26
    4466:	bb 1f       	adc	r27, r27
    4468:	ae 5b       	subi	r26, 0xBE	; 190
    446a:	be 4f       	sbci	r27, 0xFE	; 254
    446c:	8d 91       	ld	r24, X+
    446e:	9c 91       	ld	r25, X
    4470:	11 97       	sbiw	r26, 0x01	; 1
    4472:	90 93 0f 03 	sts	0x030F, r25
    4476:	80 93 0e 03 	sts	0x030E, r24
    447a:	89 85       	ldd	r24, Y+9	; 0x09
    447c:	82 60       	ori	r24, 0x02	; 2
    447e:	89 87       	std	Y+9, r24	; 0x09
    4480:	ee 23       	and	r30, r30
    4482:	11 f4       	brne	.+4      	; 0x4488 <row+0x414>
    4484:	55 23       	and	r21, r21
    4486:	69 f0       	breq	.+26     	; 0x44a2 <row+0x42e>
    4488:	f0 e0       	ldi	r31, 0x00	; 0
    448a:	ee 0f       	add	r30, r30
    448c:	ff 1f       	adc	r31, r31
    448e:	e0 50       	subi	r30, 0x00	; 0
    4490:	ff 4f       	sbci	r31, 0xFF	; 255
    4492:	01 90       	ld	r0, Z+
    4494:	f0 81       	ld	r31, Z
    4496:	e0 2d       	mov	r30, r0
    4498:	30 97       	sbiw	r30, 0x00	; 0
    449a:	19 f0       	breq	.+6      	; 0x44a2 <row+0x42e>
    449c:	c8 01       	movw	r24, r16
    449e:	09 95       	icall
    44a0:	4d 81       	ldd	r20, Y+5	; 0x05
    44a2:	4f 33       	cpi	r20, 0x3F	; 63
    44a4:	09 f4       	brne	.+2      	; 0x44a8 <row+0x434>
    44a6:	46 c1       	rjmp	.+652    	; 0x4734 <row+0x6c0>
    44a8:	99 85       	ldd	r25, Y+9	; 0x09
    44aa:	94 fd       	sbrc	r25, 4
    44ac:	49 c1       	rjmp	.+658    	; 0x4740 <row+0x6cc>
    44ae:	90 ff       	sbrs	r25, 0
    44b0:	09 c0       	rjmp	.+18     	; 0x44c4 <row+0x450>
    44b2:	eb 81       	ldd	r30, Y+3	; 0x03
    44b4:	fc 81       	ldd	r31, Y+4	; 0x04
    44b6:	a9 81       	ldd	r26, Y+1	; 0x01
    44b8:	ba 81       	ldd	r27, Y+2	; 0x02
    44ba:	11 96       	adiw	r26, 0x01	; 1
    44bc:	8c 91       	ld	r24, X
    44be:	11 97       	sbiw	r26, 0x01	; 1
    44c0:	80 87       	std	Z+8, r24	; 0x08
    44c2:	99 85       	ldd	r25, Y+9	; 0x09
    44c4:	93 ff       	sbrs	r25, 3
    44c6:	08 c0       	rjmp	.+16     	; 0x44d8 <row+0x464>
    44c8:	eb 81       	ldd	r30, Y+3	; 0x03
    44ca:	fc 81       	ldd	r31, Y+4	; 0x04
    44cc:	a9 81       	ldd	r26, Y+1	; 0x01
    44ce:	ba 81       	ldd	r27, Y+2	; 0x02
    44d0:	12 96       	adiw	r26, 0x02	; 2
    44d2:	8c 91       	ld	r24, X
    44d4:	12 97       	sbiw	r26, 0x02	; 2
    44d6:	81 87       	std	Z+9, r24	; 0x09
    44d8:	91 ff       	sbrs	r25, 1
    44da:	1a c0       	rjmp	.+52     	; 0x4510 <row+0x49c>
    44dc:	e9 81       	ldd	r30, Y+1	; 0x01
    44de:	fa 81       	ldd	r31, Y+2	; 0x02
    44e0:	26 81       	ldd	r18, Z+6	; 0x06
    44e2:	37 81       	ldd	r19, Z+7	; 0x07
    44e4:	83 89       	ldd	r24, Z+19	; 0x13
    44e6:	94 89       	ldd	r25, Z+20	; 0x14
    44e8:	00 97       	sbiw	r24, 0x00	; 0
    44ea:	09 f0       	breq	.+2      	; 0x44ee <row+0x47a>
    44ec:	e7 c0       	rjmp	.+462    	; 0x46bc <row+0x648>
    44ee:	40 e0       	ldi	r20, 0x00	; 0
    44f0:	50 e0       	ldi	r21, 0x00	; 0
    44f2:	eb 80       	ldd	r14, Y+3	; 0x03
    44f4:	fc 80       	ldd	r15, Y+4	; 0x04
    44f6:	60 91 ce 02 	lds	r22, 0x02CE
    44fa:	70 91 cf 02 	lds	r23, 0x02CF
    44fe:	80 91 d0 02 	lds	r24, 0x02D0
    4502:	90 91 d1 02 	lds	r25, 0x02D1
    4506:	0e 94 dc 2e 	call	0x5db8	; 0x5db8 <__udivmodsi4>
    450a:	f7 01       	movw	r30, r14
    450c:	37 83       	std	Z+7, r19	; 0x07
    450e:	26 83       	std	Z+6, r18	; 0x06
    4510:	20 91 88 05 	lds	r18, 0x0588
    4514:	30 91 89 05 	lds	r19, 0x0589
    4518:	2d 5f       	subi	r18, 0xFD	; 253
    451a:	3f 4f       	sbci	r19, 0xFF	; 255
    451c:	30 93 89 05 	sts	0x0589, r19
    4520:	20 93 88 05 	sts	0x0588, r18
    4524:	d8 01       	movw	r26, r16
    4526:	ec e8       	ldi	r30, 0x8C	; 140
    4528:	f1 e0       	ldi	r31, 0x01	; 1
    452a:	89 e0       	ldi	r24, 0x09	; 9
    452c:	01 90       	ld	r0, Z+
    452e:	0d 92       	st	X+, r0
    4530:	81 50       	subi	r24, 0x01	; 1
    4532:	e1 f7       	brne	.-8      	; 0x452c <row+0x4b8>
    4534:	83 e2       	ldi	r24, 0x23	; 35
    4536:	93 e0       	ldi	r25, 0x03	; 3
    4538:	9a 83       	std	Y+2, r25	; 0x02
    453a:	89 83       	std	Y+1, r24	; 0x01
    453c:	80 ec       	ldi	r24, 0xC0	; 192
    453e:	95 e0       	ldi	r25, 0x05	; 5
    4540:	9c 83       	std	Y+4, r25	; 0x04
    4542:	8b 83       	std	Y+3, r24	; 0x03
    4544:	80 91 86 05 	lds	r24, 0x0586
    4548:	90 91 87 05 	lds	r25, 0x0587
    454c:	82 0f       	add	r24, r18
    454e:	93 1f       	adc	r25, r19
    4550:	fc 01       	movw	r30, r24
    4552:	e8 59       	subi	r30, 0x98	; 152
    4554:	ff 4f       	sbci	r31, 0xFF	; 255
    4556:	34 91       	lpm	r19, Z+
    4558:	fc 01       	movw	r30, r24
    455a:	e7 59       	subi	r30, 0x97	; 151
    455c:	ff 4f       	sbci	r31, 0xFF	; 255
    455e:	24 91       	lpm	r18, Z+
    4560:	fc 01       	movw	r30, r24
    4562:	e6 59       	subi	r30, 0x96	; 150
    4564:	ff 4f       	sbci	r31, 0xFF	; 255
    4566:	54 91       	lpm	r21, Z+
    4568:	43 2f       	mov	r20, r19
    456a:	46 95       	lsr	r20
    456c:	46 95       	lsr	r20
    456e:	4d 83       	std	Y+5, r20	; 0x05
    4570:	83 2f       	mov	r24, r19
    4572:	90 e0       	ldi	r25, 0x00	; 0
    4574:	83 70       	andi	r24, 0x03	; 3
    4576:	90 70       	andi	r25, 0x00	; 0
    4578:	88 0f       	add	r24, r24
    457a:	99 1f       	adc	r25, r25
    457c:	88 0f       	add	r24, r24
    457e:	99 1f       	adc	r25, r25
    4580:	e2 2f       	mov	r30, r18
    4582:	e2 95       	swap	r30
    4584:	e6 95       	lsr	r30
    4586:	e6 95       	lsr	r30
    4588:	e3 70       	andi	r30, 0x03	; 3
    458a:	e8 2b       	or	r30, r24
    458c:	ee 83       	std	Y+6, r30	; 0x06
    458e:	26 95       	lsr	r18
    4590:	2f 71       	andi	r18, 0x1F	; 31
    4592:	2f 83       	std	Y+7, r18	; 0x07
    4594:	58 87       	std	Y+8, r21	; 0x08
    4596:	e0 93 27 03 	sts	0x0327, r30
    459a:	50 93 28 03 	sts	0x0328, r21
    459e:	22 23       	and	r18, r18
    45a0:	a9 f0       	breq	.+42     	; 0x45cc <row+0x558>
    45a2:	21 50       	subi	r18, 0x01	; 1
    45a4:	20 93 23 03 	sts	0x0323, r18
    45a8:	a2 2f       	mov	r26, r18
    45aa:	b0 e0       	ldi	r27, 0x00	; 0
    45ac:	aa 0f       	add	r26, r26
    45ae:	bb 1f       	adc	r27, r27
    45b0:	aa 0f       	add	r26, r26
    45b2:	bb 1f       	adc	r27, r27
    45b4:	aa 0f       	add	r26, r26
    45b6:	bb 1f       	adc	r27, r27
    45b8:	a2 54       	subi	r26, 0x42	; 66
    45ba:	be 4f       	sbci	r27, 0xFE	; 254
    45bc:	13 96       	adiw	r26, 0x03	; 3
    45be:	8c 91       	ld	r24, X
    45c0:	13 97       	sbiw	r26, 0x03	; 3
    45c2:	80 93 24 03 	sts	0x0324, r24
    45c6:	89 85       	ldd	r24, Y+9	; 0x09
    45c8:	81 60       	ori	r24, 0x01	; 1
    45ca:	89 87       	std	Y+9, r24	; 0x09
    45cc:	4f 33       	cpi	r20, 0x3F	; 63
    45ce:	11 f0       	breq	.+4      	; 0x45d4 <row+0x560>
    45d0:	40 93 26 03 	sts	0x0326, r20
    45d4:	80 91 2b 03 	lds	r24, 0x032B
    45d8:	88 23       	and	r24, r24
    45da:	99 f0       	breq	.+38     	; 0x4602 <row+0x58e>
    45dc:	10 92 2b 03 	sts	0x032B, r1
    45e0:	a0 91 26 03 	lds	r26, 0x0326
    45e4:	b0 e0       	ldi	r27, 0x00	; 0
    45e6:	aa 0f       	add	r26, r26
    45e8:	bb 1f       	adc	r27, r27
    45ea:	ae 5b       	subi	r26, 0xBE	; 190
    45ec:	be 4f       	sbci	r27, 0xFE	; 254
    45ee:	8d 91       	ld	r24, X+
    45f0:	9c 91       	ld	r25, X
    45f2:	11 97       	sbiw	r26, 0x01	; 1
    45f4:	90 93 2a 03 	sts	0x032A, r25
    45f8:	80 93 29 03 	sts	0x0329, r24
    45fc:	89 85       	ldd	r24, Y+9	; 0x09
    45fe:	82 60       	ori	r24, 0x02	; 2
    4600:	89 87       	std	Y+9, r24	; 0x09
    4602:	ee 23       	and	r30, r30
    4604:	11 f4       	brne	.+4      	; 0x460a <row+0x596>
    4606:	55 23       	and	r21, r21
    4608:	69 f0       	breq	.+26     	; 0x4624 <row+0x5b0>
    460a:	f0 e0       	ldi	r31, 0x00	; 0
    460c:	ee 0f       	add	r30, r30
    460e:	ff 1f       	adc	r31, r31
    4610:	e0 50       	subi	r30, 0x00	; 0
    4612:	ff 4f       	sbci	r31, 0xFF	; 255
    4614:	01 90       	ld	r0, Z+
    4616:	f0 81       	ld	r31, Z
    4618:	e0 2d       	mov	r30, r0
    461a:	30 97       	sbiw	r30, 0x00	; 0
    461c:	19 f0       	breq	.+6      	; 0x4624 <row+0x5b0>
    461e:	c8 01       	movw	r24, r16
    4620:	09 95       	icall
    4622:	4d 81       	ldd	r20, Y+5	; 0x05
    4624:	4f 33       	cpi	r20, 0x3F	; 63
    4626:	09 f4       	brne	.+2      	; 0x462a <row+0x5b6>
    4628:	83 c0       	rjmp	.+262    	; 0x4730 <row+0x6bc>
    462a:	99 85       	ldd	r25, Y+9	; 0x09
    462c:	94 fd       	sbrc	r25, 4
    462e:	58 c1       	rjmp	.+688    	; 0x48e0 <row+0x86c>
    4630:	90 ff       	sbrs	r25, 0
    4632:	09 c0       	rjmp	.+18     	; 0x4646 <row+0x5d2>
    4634:	eb 81       	ldd	r30, Y+3	; 0x03
    4636:	fc 81       	ldd	r31, Y+4	; 0x04
    4638:	a9 81       	ldd	r26, Y+1	; 0x01
    463a:	ba 81       	ldd	r27, Y+2	; 0x02
    463c:	11 96       	adiw	r26, 0x01	; 1
    463e:	8c 91       	ld	r24, X
    4640:	11 97       	sbiw	r26, 0x01	; 1
    4642:	80 87       	std	Z+8, r24	; 0x08
    4644:	99 85       	ldd	r25, Y+9	; 0x09
    4646:	93 ff       	sbrs	r25, 3
    4648:	08 c0       	rjmp	.+16     	; 0x465a <row+0x5e6>
    464a:	eb 81       	ldd	r30, Y+3	; 0x03
    464c:	fc 81       	ldd	r31, Y+4	; 0x04
    464e:	a9 81       	ldd	r26, Y+1	; 0x01
    4650:	ba 81       	ldd	r27, Y+2	; 0x02
    4652:	12 96       	adiw	r26, 0x02	; 2
    4654:	8c 91       	ld	r24, X
    4656:	12 97       	sbiw	r26, 0x02	; 2
    4658:	81 87       	std	Z+9, r24	; 0x09
    465a:	91 ff       	sbrs	r25, 1
    465c:	19 c0       	rjmp	.+50     	; 0x4690 <row+0x61c>
    465e:	e9 81       	ldd	r30, Y+1	; 0x01
    4660:	fa 81       	ldd	r31, Y+2	; 0x02
    4662:	26 81       	ldd	r18, Z+6	; 0x06
    4664:	37 81       	ldd	r19, Z+7	; 0x07
    4666:	83 89       	ldd	r24, Z+19	; 0x13
    4668:	94 89       	ldd	r25, Z+20	; 0x14
    466a:	00 97       	sbiw	r24, 0x00	; 0
    466c:	a9 f5       	brne	.+106    	; 0x46d8 <row+0x664>
    466e:	40 e0       	ldi	r20, 0x00	; 0
    4670:	50 e0       	ldi	r21, 0x00	; 0
    4672:	0b 81       	ldd	r16, Y+3	; 0x03
    4674:	1c 81       	ldd	r17, Y+4	; 0x04
    4676:	60 91 ce 02 	lds	r22, 0x02CE
    467a:	70 91 cf 02 	lds	r23, 0x02CF
    467e:	80 91 d0 02 	lds	r24, 0x02D0
    4682:	90 91 d1 02 	lds	r25, 0x02D1
    4686:	0e 94 dc 2e 	call	0x5db8	; 0x5db8 <__udivmodsi4>
    468a:	f8 01       	movw	r30, r16
    468c:	37 83       	std	Z+7, r19	; 0x07
    468e:	26 83       	std	Z+6, r18	; 0x06
    4690:	80 91 88 05 	lds	r24, 0x0588
    4694:	90 91 89 05 	lds	r25, 0x0589
    4698:	03 96       	adiw	r24, 0x03	; 3
    469a:	90 93 89 05 	sts	0x0589, r25
    469e:	80 93 88 05 	sts	0x0588, r24
    46a2:	29 96       	adiw	r28, 0x09	; 9
    46a4:	0f b6       	in	r0, 0x3f	; 63
    46a6:	f8 94       	cli
    46a8:	de bf       	out	0x3e, r29	; 62
    46aa:	0f be       	out	0x3f, r0	; 63
    46ac:	cd bf       	out	0x3d, r28	; 61
    46ae:	cf 91       	pop	r28
    46b0:	df 91       	pop	r29
    46b2:	1f 91       	pop	r17
    46b4:	0f 91       	pop	r16
    46b6:	ff 90       	pop	r15
    46b8:	ef 90       	pop	r14
    46ba:	08 95       	ret
    46bc:	28 0f       	add	r18, r24
    46be:	39 1f       	adc	r19, r25
    46c0:	43 e0       	ldi	r20, 0x03	; 3
    46c2:	29 35       	cpi	r18, 0x59	; 89
    46c4:	34 07       	cpc	r19, r20
    46c6:	0c f4       	brge	.+2      	; 0x46ca <row+0x656>
    46c8:	df c1       	rjmp	.+958    	; 0x4a88 <row+0xa14>
    46ca:	28 e5       	ldi	r18, 0x58	; 88
    46cc:	33 e0       	ldi	r19, 0x03	; 3
    46ce:	40 e0       	ldi	r20, 0x00	; 0
    46d0:	50 e0       	ldi	r21, 0x00	; 0
    46d2:	14 8a       	std	Z+20, r1	; 0x14
    46d4:	13 8a       	std	Z+19, r1	; 0x13
    46d6:	0d cf       	rjmp	.-486    	; 0x44f2 <row+0x47e>
    46d8:	28 0f       	add	r18, r24
    46da:	39 1f       	adc	r19, r25
    46dc:	43 e0       	ldi	r20, 0x03	; 3
    46de:	29 35       	cpi	r18, 0x59	; 89
    46e0:	34 07       	cpc	r19, r20
    46e2:	0c f0       	brlt	.+2      	; 0x46e6 <row+0x672>
    46e4:	cc c1       	rjmp	.+920    	; 0x4a7e <row+0xa0a>
    46e6:	21 37       	cpi	r18, 0x71	; 113
    46e8:	31 05       	cpc	r19, r1
    46ea:	0c f4       	brge	.+2      	; 0x46ee <row+0x67a>
    46ec:	12 c2       	rjmp	.+1060   	; 0x4b12 <row+0xa9e>
    46ee:	40 e0       	ldi	r20, 0x00	; 0
    46f0:	50 e0       	ldi	r21, 0x00	; 0
    46f2:	14 8a       	std	Z+20, r1	; 0x14
    46f4:	13 8a       	std	Z+19, r1	; 0x13
    46f6:	bd cf       	rjmp	.-134    	; 0x4672 <row+0x5fe>
    46f8:	28 0f       	add	r18, r24
    46fa:	39 1f       	adc	r19, r25
    46fc:	43 e0       	ldi	r20, 0x03	; 3
    46fe:	29 35       	cpi	r18, 0x59	; 89
    4700:	34 07       	cpc	r19, r20
    4702:	0c f4       	brge	.+2      	; 0x4706 <row+0x692>
    4704:	cf c1       	rjmp	.+926    	; 0x4aa4 <row+0xa30>
    4706:	28 e5       	ldi	r18, 0x58	; 88
    4708:	33 e0       	ldi	r19, 0x03	; 3
    470a:	40 e0       	ldi	r20, 0x00	; 0
    470c:	50 e0       	ldi	r21, 0x00	; 0
    470e:	14 8a       	std	Z+20, r1	; 0x14
    4710:	13 8a       	std	Z+19, r1	; 0x13
    4712:	2e ce       	rjmp	.-932    	; 0x4370 <row+0x2fc>
    4714:	28 0f       	add	r18, r24
    4716:	39 1f       	adc	r19, r25
    4718:	43 e0       	ldi	r20, 0x03	; 3
    471a:	29 35       	cpi	r18, 0x59	; 89
    471c:	34 07       	cpc	r19, r20
    471e:	0c f4       	brge	.+2      	; 0x4722 <row+0x6ae>
    4720:	ba c1       	rjmp	.+884    	; 0x4a96 <row+0xa22>
    4722:	28 e5       	ldi	r18, 0x58	; 88
    4724:	33 e0       	ldi	r19, 0x03	; 3
    4726:	40 e0       	ldi	r20, 0x00	; 0
    4728:	50 e0       	ldi	r21, 0x00	; 0
    472a:	14 8a       	std	Z+20, r1	; 0x14
    472c:	13 8a       	std	Z+19, r1	; 0x13
    472e:	5f cd       	rjmp	.-1346   	; 0x41ee <row+0x17a>
    4730:	99 85       	ldd	r25, Y+9	; 0x09
    4732:	7e cf       	rjmp	.-260    	; 0x4630 <row+0x5bc>
    4734:	99 85       	ldd	r25, Y+9	; 0x09
    4736:	bb ce       	rjmp	.-650    	; 0x44ae <row+0x43a>
    4738:	99 85       	ldd	r25, Y+9	; 0x09
    473a:	37 cd       	rjmp	.-1426   	; 0x41aa <row+0x136>
    473c:	99 85       	ldd	r25, Y+9	; 0x09
    473e:	f6 cd       	rjmp	.-1044   	; 0x432c <row+0x2b8>
    4740:	a9 81       	ldd	r26, Y+1	; 0x01
    4742:	ba 81       	ldd	r27, Y+2	; 0x02
    4744:	8c 91       	ld	r24, X
    4746:	8f 3f       	cpi	r24, 0xFF	; 255
    4748:	09 f4       	brne	.+2      	; 0x474c <row+0x6d8>
    474a:	b1 ce       	rjmp	.-670    	; 0x44ae <row+0x43a>
    474c:	90 e0       	ldi	r25, 0x00	; 0
    474e:	13 96       	adiw	r26, 0x03	; 3
    4750:	ec 91       	ld	r30, X
    4752:	13 97       	sbiw	r26, 0x03	; 3
    4754:	f0 e0       	ldi	r31, 0x00	; 0
    4756:	ee 0f       	add	r30, r30
    4758:	ff 1f       	adc	r31, r31
    475a:	ee 5b       	subi	r30, 0xBE	; 190
    475c:	fe 4f       	sbci	r31, 0xFE	; 254
    475e:	20 81       	ld	r18, Z
    4760:	31 81       	ldd	r19, Z+1	; 0x01
    4762:	17 96       	adiw	r26, 0x07	; 7
    4764:	3c 93       	st	X, r19
    4766:	2e 93       	st	-X, r18
    4768:	16 97       	sbiw	r26, 0x06	; 6
    476a:	e3 e0       	ldi	r30, 0x03	; 3
    476c:	29 35       	cpi	r18, 0x59	; 89
    476e:	3e 07       	cpc	r19, r30
    4770:	30 f0       	brcs	.+12     	; 0x477e <row+0x70a>
    4772:	28 e5       	ldi	r18, 0x58	; 88
    4774:	33 e0       	ldi	r19, 0x03	; 3
    4776:	17 96       	adiw	r26, 0x07	; 7
    4778:	3c 93       	st	X, r19
    477a:	2e 93       	st	-X, r18
    477c:	16 97       	sbiw	r26, 0x06	; 6
    477e:	2b 81       	ldd	r18, Y+3	; 0x03
    4780:	3c 81       	ldd	r19, Y+4	; 0x04
    4782:	dc 01       	movw	r26, r24
    4784:	aa 0f       	add	r26, r26
    4786:	bb 1f       	adc	r27, r27
    4788:	ae 52       	subi	r26, 0x2E	; 46
    478a:	ba 4f       	sbci	r27, 0xFA	; 250
    478c:	4d 91       	ld	r20, X+
    478e:	5c 91       	ld	r21, X
    4790:	11 97       	sbiw	r26, 0x01	; 1
    4792:	f9 01       	movw	r30, r18
    4794:	51 83       	std	Z+1, r21	; 0x01
    4796:	40 83       	st	Z, r20
    4798:	12 82       	std	Z+2, r1	; 0x02
    479a:	13 82       	std	Z+3, r1	; 0x03
    479c:	14 82       	std	Z+4, r1	; 0x04
    479e:	15 82       	std	Z+5, r1	; 0x05
    47a0:	69 85       	ldd	r22, Y+9	; 0x09
    47a2:	62 60       	ori	r22, 0x02	; 2
    47a4:	69 87       	std	Y+9, r22	; 0x09
    47a6:	fc 01       	movw	r30, r24
    47a8:	ee 0f       	add	r30, r30
    47aa:	ff 1f       	adc	r31, r31
    47ac:	ee 0f       	add	r30, r30
    47ae:	ff 1f       	adc	r31, r31
    47b0:	ee 0f       	add	r30, r30
    47b2:	ff 1f       	adc	r31, r31
    47b4:	e2 54       	subi	r30, 0x42	; 66
    47b6:	fe 4f       	sbci	r31, 0xFE	; 254
    47b8:	46 81       	ldd	r20, Z+6	; 0x06
    47ba:	57 81       	ldd	r21, Z+7	; 0x07
    47bc:	41 15       	cp	r20, r1
    47be:	51 05       	cpc	r21, r1
    47c0:	09 f4       	brne	.+2      	; 0x47c4 <row+0x750>
    47c2:	9b c1       	rjmp	.+822    	; 0x4afa <row+0xa86>
    47c4:	84 81       	ldd	r24, Z+4	; 0x04
    47c6:	95 81       	ldd	r25, Z+5	; 0x05
    47c8:	84 0f       	add	r24, r20
    47ca:	95 1f       	adc	r25, r21
    47cc:	aa 27       	eor	r26, r26
    47ce:	97 fd       	sbrc	r25, 7
    47d0:	a0 95       	com	r26
    47d2:	ba 2f       	mov	r27, r26
    47d4:	f9 e0       	ldi	r31, 0x09	; 9
    47d6:	88 0f       	add	r24, r24
    47d8:	99 1f       	adc	r25, r25
    47da:	aa 1f       	adc	r26, r26
    47dc:	bb 1f       	adc	r27, r27
    47de:	fa 95       	dec	r31
    47e0:	d1 f7       	brne	.-12     	; 0x47d6 <row+0x762>
    47e2:	f9 01       	movw	r30, r18
    47e4:	82 87       	std	Z+10, r24	; 0x0a
    47e6:	93 87       	std	Z+11, r25	; 0x0b
    47e8:	a4 87       	std	Z+12, r26	; 0x0c
    47ea:	b5 87       	std	Z+13, r27	; 0x0d
    47ec:	ca 01       	movw	r24, r20
    47ee:	aa 27       	eor	r26, r26
    47f0:	97 fd       	sbrc	r25, 7
    47f2:	a0 95       	com	r26
    47f4:	ba 2f       	mov	r27, r26
    47f6:	29 e0       	ldi	r18, 0x09	; 9
    47f8:	88 0f       	add	r24, r24
    47fa:	99 1f       	adc	r25, r25
    47fc:	aa 1f       	adc	r26, r26
    47fe:	bb 1f       	adc	r27, r27
    4800:	2a 95       	dec	r18
    4802:	d1 f7       	brne	.-12     	; 0x47f8 <row+0x784>
    4804:	86 87       	std	Z+14, r24	; 0x0e
    4806:	97 87       	std	Z+15, r25	; 0x0f
    4808:	a0 8b       	std	Z+16, r26	; 0x10
    480a:	b1 8b       	std	Z+17, r27	; 0x11
    480c:	96 2f       	mov	r25, r22
    480e:	4f ce       	rjmp	.-866    	; 0x44ae <row+0x43a>
    4810:	a9 81       	ldd	r26, Y+1	; 0x01
    4812:	ba 81       	ldd	r27, Y+2	; 0x02
    4814:	8c 91       	ld	r24, X
    4816:	8f 3f       	cpi	r24, 0xFF	; 255
    4818:	09 f4       	brne	.+2      	; 0x481c <row+0x7a8>
    481a:	c7 cc       	rjmp	.-1650   	; 0x41aa <row+0x136>
    481c:	90 e0       	ldi	r25, 0x00	; 0
    481e:	13 96       	adiw	r26, 0x03	; 3
    4820:	ec 91       	ld	r30, X
    4822:	13 97       	sbiw	r26, 0x03	; 3
    4824:	f0 e0       	ldi	r31, 0x00	; 0
    4826:	ee 0f       	add	r30, r30
    4828:	ff 1f       	adc	r31, r31
    482a:	ee 5b       	subi	r30, 0xBE	; 190
    482c:	fe 4f       	sbci	r31, 0xFE	; 254
    482e:	20 81       	ld	r18, Z
    4830:	31 81       	ldd	r19, Z+1	; 0x01
    4832:	17 96       	adiw	r26, 0x07	; 7
    4834:	3c 93       	st	X, r19
    4836:	2e 93       	st	-X, r18
    4838:	16 97       	sbiw	r26, 0x06	; 6
    483a:	43 e0       	ldi	r20, 0x03	; 3
    483c:	29 35       	cpi	r18, 0x59	; 89
    483e:	34 07       	cpc	r19, r20
    4840:	30 f0       	brcs	.+12     	; 0x484e <row+0x7da>
    4842:	28 e5       	ldi	r18, 0x58	; 88
    4844:	33 e0       	ldi	r19, 0x03	; 3
    4846:	17 96       	adiw	r26, 0x07	; 7
    4848:	3c 93       	st	X, r19
    484a:	2e 93       	st	-X, r18
    484c:	16 97       	sbiw	r26, 0x06	; 6
    484e:	2b 81       	ldd	r18, Y+3	; 0x03
    4850:	3c 81       	ldd	r19, Y+4	; 0x04
    4852:	dc 01       	movw	r26, r24
    4854:	aa 0f       	add	r26, r26
    4856:	bb 1f       	adc	r27, r27
    4858:	ae 52       	subi	r26, 0x2E	; 46
    485a:	ba 4f       	sbci	r27, 0xFA	; 250
    485c:	4d 91       	ld	r20, X+
    485e:	5c 91       	ld	r21, X
    4860:	11 97       	sbiw	r26, 0x01	; 1
    4862:	f9 01       	movw	r30, r18
    4864:	51 83       	std	Z+1, r21	; 0x01
    4866:	40 83       	st	Z, r20
    4868:	12 82       	std	Z+2, r1	; 0x02
    486a:	13 82       	std	Z+3, r1	; 0x03
    486c:	14 82       	std	Z+4, r1	; 0x04
    486e:	15 82       	std	Z+5, r1	; 0x05
    4870:	69 85       	ldd	r22, Y+9	; 0x09
    4872:	62 60       	ori	r22, 0x02	; 2
    4874:	69 87       	std	Y+9, r22	; 0x09
    4876:	fc 01       	movw	r30, r24
    4878:	ee 0f       	add	r30, r30
    487a:	ff 1f       	adc	r31, r31
    487c:	ee 0f       	add	r30, r30
    487e:	ff 1f       	adc	r31, r31
    4880:	ee 0f       	add	r30, r30
    4882:	ff 1f       	adc	r31, r31
    4884:	e2 54       	subi	r30, 0x42	; 66
    4886:	fe 4f       	sbci	r31, 0xFE	; 254
    4888:	46 81       	ldd	r20, Z+6	; 0x06
    488a:	57 81       	ldd	r21, Z+7	; 0x07
    488c:	41 15       	cp	r20, r1
    488e:	51 05       	cpc	r21, r1
    4890:	09 f4       	brne	.+2      	; 0x4894 <row+0x820>
    4892:	0e c1       	rjmp	.+540    	; 0x4ab0 <row+0xa3c>
    4894:	84 81       	ldd	r24, Z+4	; 0x04
    4896:	95 81       	ldd	r25, Z+5	; 0x05
    4898:	84 0f       	add	r24, r20
    489a:	95 1f       	adc	r25, r21
    489c:	aa 27       	eor	r26, r26
    489e:	97 fd       	sbrc	r25, 7
    48a0:	a0 95       	com	r26
    48a2:	ba 2f       	mov	r27, r26
    48a4:	79 e0       	ldi	r23, 0x09	; 9
    48a6:	88 0f       	add	r24, r24
    48a8:	99 1f       	adc	r25, r25
    48aa:	aa 1f       	adc	r26, r26
    48ac:	bb 1f       	adc	r27, r27
    48ae:	7a 95       	dec	r23
    48b0:	d1 f7       	brne	.-12     	; 0x48a6 <row+0x832>
    48b2:	f9 01       	movw	r30, r18
    48b4:	82 87       	std	Z+10, r24	; 0x0a
    48b6:	93 87       	std	Z+11, r25	; 0x0b
    48b8:	a4 87       	std	Z+12, r26	; 0x0c
    48ba:	b5 87       	std	Z+13, r27	; 0x0d
    48bc:	ca 01       	movw	r24, r20
    48be:	aa 27       	eor	r26, r26
    48c0:	97 fd       	sbrc	r25, 7
    48c2:	a0 95       	com	r26
    48c4:	ba 2f       	mov	r27, r26
    48c6:	29 e0       	ldi	r18, 0x09	; 9
    48c8:	88 0f       	add	r24, r24
    48ca:	99 1f       	adc	r25, r25
    48cc:	aa 1f       	adc	r26, r26
    48ce:	bb 1f       	adc	r27, r27
    48d0:	2a 95       	dec	r18
    48d2:	d1 f7       	brne	.-12     	; 0x48c8 <row+0x854>
    48d4:	86 87       	std	Z+14, r24	; 0x0e
    48d6:	97 87       	std	Z+15, r25	; 0x0f
    48d8:	a0 8b       	std	Z+16, r26	; 0x10
    48da:	b1 8b       	std	Z+17, r27	; 0x11
    48dc:	96 2f       	mov	r25, r22
    48de:	65 cc       	rjmp	.-1846   	; 0x41aa <row+0x136>
    48e0:	a9 81       	ldd	r26, Y+1	; 0x01
    48e2:	ba 81       	ldd	r27, Y+2	; 0x02
    48e4:	8c 91       	ld	r24, X
    48e6:	8f 3f       	cpi	r24, 0xFF	; 255
    48e8:	09 f4       	brne	.+2      	; 0x48ec <row+0x878>
    48ea:	a2 ce       	rjmp	.-700    	; 0x4630 <row+0x5bc>
    48ec:	90 e0       	ldi	r25, 0x00	; 0
    48ee:	13 96       	adiw	r26, 0x03	; 3
    48f0:	ec 91       	ld	r30, X
    48f2:	13 97       	sbiw	r26, 0x03	; 3
    48f4:	f0 e0       	ldi	r31, 0x00	; 0
    48f6:	ee 0f       	add	r30, r30
    48f8:	ff 1f       	adc	r31, r31
    48fa:	ee 5b       	subi	r30, 0xBE	; 190
    48fc:	fe 4f       	sbci	r31, 0xFE	; 254
    48fe:	20 81       	ld	r18, Z
    4900:	31 81       	ldd	r19, Z+1	; 0x01
    4902:	17 96       	adiw	r26, 0x07	; 7
    4904:	3c 93       	st	X, r19
    4906:	2e 93       	st	-X, r18
    4908:	16 97       	sbiw	r26, 0x06	; 6
    490a:	e3 e0       	ldi	r30, 0x03	; 3
    490c:	29 35       	cpi	r18, 0x59	; 89
    490e:	3e 07       	cpc	r19, r30
    4910:	30 f0       	brcs	.+12     	; 0x491e <row+0x8aa>
    4912:	28 e5       	ldi	r18, 0x58	; 88
    4914:	33 e0       	ldi	r19, 0x03	; 3
    4916:	17 96       	adiw	r26, 0x07	; 7
    4918:	3c 93       	st	X, r19
    491a:	2e 93       	st	-X, r18
    491c:	16 97       	sbiw	r26, 0x06	; 6
    491e:	eb 81       	ldd	r30, Y+3	; 0x03
    4920:	fc 81       	ldd	r31, Y+4	; 0x04
    4922:	dc 01       	movw	r26, r24
    4924:	aa 0f       	add	r26, r26
    4926:	bb 1f       	adc	r27, r27
    4928:	ae 52       	subi	r26, 0x2E	; 46
    492a:	ba 4f       	sbci	r27, 0xFA	; 250
    492c:	2d 91       	ld	r18, X+
    492e:	3c 91       	ld	r19, X
    4930:	31 83       	std	Z+1, r19	; 0x01
    4932:	20 83       	st	Z, r18
    4934:	12 82       	std	Z+2, r1	; 0x02
    4936:	13 82       	std	Z+3, r1	; 0x03
    4938:	14 82       	std	Z+4, r1	; 0x04
    493a:	15 82       	std	Z+5, r1	; 0x05
    493c:	69 85       	ldd	r22, Y+9	; 0x09
    493e:	62 60       	ori	r22, 0x02	; 2
    4940:	69 87       	std	Y+9, r22	; 0x09
    4942:	dc 01       	movw	r26, r24
    4944:	aa 0f       	add	r26, r26
    4946:	bb 1f       	adc	r27, r27
    4948:	aa 0f       	add	r26, r26
    494a:	bb 1f       	adc	r27, r27
    494c:	aa 0f       	add	r26, r26
    494e:	bb 1f       	adc	r27, r27
    4950:	a2 54       	subi	r26, 0x42	; 66
    4952:	be 4f       	sbci	r27, 0xFE	; 254
    4954:	16 96       	adiw	r26, 0x06	; 6
    4956:	8d 91       	ld	r24, X+
    4958:	9c 91       	ld	r25, X
    495a:	17 97       	sbiw	r26, 0x07	; 7
    495c:	00 97       	sbiw	r24, 0x00	; 0
    495e:	09 f4       	brne	.+2      	; 0x4962 <row+0x8ee>
    4960:	b3 c0       	rjmp	.+358    	; 0x4ac8 <row+0xa54>
    4962:	14 96       	adiw	r26, 0x04	; 4
    4964:	2d 91       	ld	r18, X+
    4966:	3c 91       	ld	r19, X
    4968:	15 97       	sbiw	r26, 0x05	; 5
    496a:	28 0f       	add	r18, r24
    496c:	39 1f       	adc	r19, r25
    496e:	44 27       	eor	r20, r20
    4970:	37 fd       	sbrc	r19, 7
    4972:	40 95       	com	r20
    4974:	54 2f       	mov	r21, r20
    4976:	a9 e0       	ldi	r26, 0x09	; 9
    4978:	22 0f       	add	r18, r18
    497a:	33 1f       	adc	r19, r19
    497c:	44 1f       	adc	r20, r20
    497e:	55 1f       	adc	r21, r21
    4980:	aa 95       	dec	r26
    4982:	d1 f7       	brne	.-12     	; 0x4978 <row+0x904>
    4984:	22 87       	std	Z+10, r18	; 0x0a
    4986:	33 87       	std	Z+11, r19	; 0x0b
    4988:	44 87       	std	Z+12, r20	; 0x0c
    498a:	55 87       	std	Z+13, r21	; 0x0d
    498c:	aa 27       	eor	r26, r26
    498e:	97 fd       	sbrc	r25, 7
    4990:	a0 95       	com	r26
    4992:	ba 2f       	mov	r27, r26
    4994:	59 e0       	ldi	r21, 0x09	; 9
    4996:	88 0f       	add	r24, r24
    4998:	99 1f       	adc	r25, r25
    499a:	aa 1f       	adc	r26, r26
    499c:	bb 1f       	adc	r27, r27
    499e:	5a 95       	dec	r21
    49a0:	d1 f7       	brne	.-12     	; 0x4996 <row+0x922>
    49a2:	86 87       	std	Z+14, r24	; 0x0e
    49a4:	97 87       	std	Z+15, r25	; 0x0f
    49a6:	a0 8b       	std	Z+16, r26	; 0x10
    49a8:	b1 8b       	std	Z+17, r27	; 0x11
    49aa:	96 2f       	mov	r25, r22
    49ac:	41 ce       	rjmp	.-894    	; 0x4630 <row+0x5bc>
    49ae:	a9 81       	ldd	r26, Y+1	; 0x01
    49b0:	ba 81       	ldd	r27, Y+2	; 0x02
    49b2:	8c 91       	ld	r24, X
    49b4:	8f 3f       	cpi	r24, 0xFF	; 255
    49b6:	09 f4       	brne	.+2      	; 0x49ba <row+0x946>
    49b8:	b9 cc       	rjmp	.-1678   	; 0x432c <row+0x2b8>
    49ba:	90 e0       	ldi	r25, 0x00	; 0
    49bc:	13 96       	adiw	r26, 0x03	; 3
    49be:	ec 91       	ld	r30, X
    49c0:	13 97       	sbiw	r26, 0x03	; 3
    49c2:	f0 e0       	ldi	r31, 0x00	; 0
    49c4:	ee 0f       	add	r30, r30
    49c6:	ff 1f       	adc	r31, r31
    49c8:	ee 5b       	subi	r30, 0xBE	; 190
    49ca:	fe 4f       	sbci	r31, 0xFE	; 254
    49cc:	20 81       	ld	r18, Z
    49ce:	31 81       	ldd	r19, Z+1	; 0x01
    49d0:	17 96       	adiw	r26, 0x07	; 7
    49d2:	3c 93       	st	X, r19
    49d4:	2e 93       	st	-X, r18
    49d6:	16 97       	sbiw	r26, 0x06	; 6
    49d8:	e3 e0       	ldi	r30, 0x03	; 3
    49da:	29 35       	cpi	r18, 0x59	; 89
    49dc:	3e 07       	cpc	r19, r30
    49de:	30 f0       	brcs	.+12     	; 0x49ec <row+0x978>
    49e0:	28 e5       	ldi	r18, 0x58	; 88
    49e2:	33 e0       	ldi	r19, 0x03	; 3
    49e4:	17 96       	adiw	r26, 0x07	; 7
    49e6:	3c 93       	st	X, r19
    49e8:	2e 93       	st	-X, r18
    49ea:	16 97       	sbiw	r26, 0x06	; 6
    49ec:	2b 81       	ldd	r18, Y+3	; 0x03
    49ee:	3c 81       	ldd	r19, Y+4	; 0x04
    49f0:	dc 01       	movw	r26, r24
    49f2:	aa 0f       	add	r26, r26
    49f4:	bb 1f       	adc	r27, r27
    49f6:	ae 52       	subi	r26, 0x2E	; 46
    49f8:	ba 4f       	sbci	r27, 0xFA	; 250
    49fa:	4d 91       	ld	r20, X+
    49fc:	5c 91       	ld	r21, X
    49fe:	11 97       	sbiw	r26, 0x01	; 1
    4a00:	f9 01       	movw	r30, r18
    4a02:	51 83       	std	Z+1, r21	; 0x01
    4a04:	40 83       	st	Z, r20
    4a06:	12 82       	std	Z+2, r1	; 0x02
    4a08:	13 82       	std	Z+3, r1	; 0x03
    4a0a:	14 82       	std	Z+4, r1	; 0x04
    4a0c:	15 82       	std	Z+5, r1	; 0x05
    4a0e:	69 85       	ldd	r22, Y+9	; 0x09
    4a10:	62 60       	ori	r22, 0x02	; 2
    4a12:	69 87       	std	Y+9, r22	; 0x09
    4a14:	fc 01       	movw	r30, r24
    4a16:	ee 0f       	add	r30, r30
    4a18:	ff 1f       	adc	r31, r31
    4a1a:	ee 0f       	add	r30, r30
    4a1c:	ff 1f       	adc	r31, r31
    4a1e:	ee 0f       	add	r30, r30
    4a20:	ff 1f       	adc	r31, r31
    4a22:	e2 54       	subi	r30, 0x42	; 66
    4a24:	fe 4f       	sbci	r31, 0xFE	; 254
    4a26:	46 81       	ldd	r20, Z+6	; 0x06
    4a28:	57 81       	ldd	r21, Z+7	; 0x07
    4a2a:	41 15       	cp	r20, r1
    4a2c:	51 05       	cpc	r21, r1
    4a2e:	09 f4       	brne	.+2      	; 0x4a32 <row+0x9be>
    4a30:	58 c0       	rjmp	.+176    	; 0x4ae2 <row+0xa6e>
    4a32:	84 81       	ldd	r24, Z+4	; 0x04
    4a34:	95 81       	ldd	r25, Z+5	; 0x05
    4a36:	84 0f       	add	r24, r20
    4a38:	95 1f       	adc	r25, r21
    4a3a:	aa 27       	eor	r26, r26
    4a3c:	97 fd       	sbrc	r25, 7
    4a3e:	a0 95       	com	r26
    4a40:	ba 2f       	mov	r27, r26
    4a42:	79 e0       	ldi	r23, 0x09	; 9
    4a44:	88 0f       	add	r24, r24
    4a46:	99 1f       	adc	r25, r25
    4a48:	aa 1f       	adc	r26, r26
    4a4a:	bb 1f       	adc	r27, r27
    4a4c:	7a 95       	dec	r23
    4a4e:	d1 f7       	brne	.-12     	; 0x4a44 <row+0x9d0>
    4a50:	f9 01       	movw	r30, r18
    4a52:	82 87       	std	Z+10, r24	; 0x0a
    4a54:	93 87       	std	Z+11, r25	; 0x0b
    4a56:	a4 87       	std	Z+12, r26	; 0x0c
    4a58:	b5 87       	std	Z+13, r27	; 0x0d
    4a5a:	ca 01       	movw	r24, r20
    4a5c:	aa 27       	eor	r26, r26
    4a5e:	97 fd       	sbrc	r25, 7
    4a60:	a0 95       	com	r26
    4a62:	ba 2f       	mov	r27, r26
    4a64:	29 e0       	ldi	r18, 0x09	; 9
    4a66:	88 0f       	add	r24, r24
    4a68:	99 1f       	adc	r25, r25
    4a6a:	aa 1f       	adc	r26, r26
    4a6c:	bb 1f       	adc	r27, r27
    4a6e:	2a 95       	dec	r18
    4a70:	d1 f7       	brne	.-12     	; 0x4a66 <row+0x9f2>
    4a72:	86 87       	std	Z+14, r24	; 0x0e
    4a74:	97 87       	std	Z+15, r25	; 0x0f
    4a76:	a0 8b       	std	Z+16, r26	; 0x10
    4a78:	b1 8b       	std	Z+17, r27	; 0x11
    4a7a:	96 2f       	mov	r25, r22
    4a7c:	57 cc       	rjmp	.-1874   	; 0x432c <row+0x2b8>
    4a7e:	28 e5       	ldi	r18, 0x58	; 88
    4a80:	33 e0       	ldi	r19, 0x03	; 3
    4a82:	40 e0       	ldi	r20, 0x00	; 0
    4a84:	50 e0       	ldi	r21, 0x00	; 0
    4a86:	35 ce       	rjmp	.-918    	; 0x46f2 <row+0x67e>
    4a88:	21 37       	cpi	r18, 0x71	; 113
    4a8a:	31 05       	cpc	r19, r1
    4a8c:	0c f4       	brge	.+2      	; 0x4a90 <row+0xa1c>
    4a8e:	50 c0       	rjmp	.+160    	; 0x4b30 <row+0xabc>
    4a90:	40 e0       	ldi	r20, 0x00	; 0
    4a92:	50 e0       	ldi	r21, 0x00	; 0
    4a94:	1e ce       	rjmp	.-964    	; 0x46d2 <row+0x65e>
    4a96:	21 37       	cpi	r18, 0x71	; 113
    4a98:	31 05       	cpc	r19, r1
    4a9a:	0c f4       	brge	.+2      	; 0x4a9e <row+0xa2a>
    4a9c:	3f c0       	rjmp	.+126    	; 0x4b1c <row+0xaa8>
    4a9e:	40 e0       	ldi	r20, 0x00	; 0
    4aa0:	50 e0       	ldi	r21, 0x00	; 0
    4aa2:	43 ce       	rjmp	.-890    	; 0x472a <row+0x6b6>
    4aa4:	21 37       	cpi	r18, 0x71	; 113
    4aa6:	31 05       	cpc	r19, r1
    4aa8:	f4 f1       	brlt	.+124    	; 0x4b26 <row+0xab2>
    4aaa:	40 e0       	ldi	r20, 0x00	; 0
    4aac:	50 e0       	ldi	r21, 0x00	; 0
    4aae:	2f ce       	rjmp	.-930    	; 0x470e <row+0x69a>
    4ab0:	80 81       	ld	r24, Z
    4ab2:	91 81       	ldd	r25, Z+1	; 0x01
    4ab4:	a0 e0       	ldi	r26, 0x00	; 0
    4ab6:	b0 e0       	ldi	r27, 0x00	; 0
    4ab8:	e9 e0       	ldi	r30, 0x09	; 9
    4aba:	88 0f       	add	r24, r24
    4abc:	99 1f       	adc	r25, r25
    4abe:	aa 1f       	adc	r26, r26
    4ac0:	bb 1f       	adc	r27, r27
    4ac2:	ea 95       	dec	r30
    4ac4:	d1 f7       	brne	.-12     	; 0x4aba <row+0xa46>
    4ac6:	f5 ce       	rjmp	.-534    	; 0x48b2 <row+0x83e>
    4ac8:	2d 91       	ld	r18, X+
    4aca:	3c 91       	ld	r19, X
    4acc:	11 97       	sbiw	r26, 0x01	; 1
    4ace:	40 e0       	ldi	r20, 0x00	; 0
    4ad0:	50 e0       	ldi	r21, 0x00	; 0
    4ad2:	79 e0       	ldi	r23, 0x09	; 9
    4ad4:	22 0f       	add	r18, r18
    4ad6:	33 1f       	adc	r19, r19
    4ad8:	44 1f       	adc	r20, r20
    4ada:	55 1f       	adc	r21, r21
    4adc:	7a 95       	dec	r23
    4ade:	d1 f7       	brne	.-12     	; 0x4ad4 <row+0xa60>
    4ae0:	51 cf       	rjmp	.-350    	; 0x4984 <row+0x910>
    4ae2:	80 81       	ld	r24, Z
    4ae4:	91 81       	ldd	r25, Z+1	; 0x01
    4ae6:	a0 e0       	ldi	r26, 0x00	; 0
    4ae8:	b0 e0       	ldi	r27, 0x00	; 0
    4aea:	e9 e0       	ldi	r30, 0x09	; 9
    4aec:	88 0f       	add	r24, r24
    4aee:	99 1f       	adc	r25, r25
    4af0:	aa 1f       	adc	r26, r26
    4af2:	bb 1f       	adc	r27, r27
    4af4:	ea 95       	dec	r30
    4af6:	d1 f7       	brne	.-12     	; 0x4aec <row+0xa78>
    4af8:	ab cf       	rjmp	.-170    	; 0x4a50 <row+0x9dc>
    4afa:	80 81       	ld	r24, Z
    4afc:	91 81       	ldd	r25, Z+1	; 0x01
    4afe:	a0 e0       	ldi	r26, 0x00	; 0
    4b00:	b0 e0       	ldi	r27, 0x00	; 0
    4b02:	79 e0       	ldi	r23, 0x09	; 9
    4b04:	88 0f       	add	r24, r24
    4b06:	99 1f       	adc	r25, r25
    4b08:	aa 1f       	adc	r26, r26
    4b0a:	bb 1f       	adc	r27, r27
    4b0c:	7a 95       	dec	r23
    4b0e:	d1 f7       	brne	.-12     	; 0x4b04 <row+0xa90>
    4b10:	68 ce       	rjmp	.-816    	; 0x47e2 <row+0x76e>
    4b12:	21 e7       	ldi	r18, 0x71	; 113
    4b14:	30 e0       	ldi	r19, 0x00	; 0
    4b16:	40 e0       	ldi	r20, 0x00	; 0
    4b18:	50 e0       	ldi	r21, 0x00	; 0
    4b1a:	eb cd       	rjmp	.-1066   	; 0x46f2 <row+0x67e>
    4b1c:	21 e7       	ldi	r18, 0x71	; 113
    4b1e:	30 e0       	ldi	r19, 0x00	; 0
    4b20:	40 e0       	ldi	r20, 0x00	; 0
    4b22:	50 e0       	ldi	r21, 0x00	; 0
    4b24:	02 ce       	rjmp	.-1020   	; 0x472a <row+0x6b6>
    4b26:	21 e7       	ldi	r18, 0x71	; 113
    4b28:	30 e0       	ldi	r19, 0x00	; 0
    4b2a:	40 e0       	ldi	r20, 0x00	; 0
    4b2c:	50 e0       	ldi	r21, 0x00	; 0
    4b2e:	ef cd       	rjmp	.-1058   	; 0x470e <row+0x69a>
    4b30:	21 e7       	ldi	r18, 0x71	; 113
    4b32:	30 e0       	ldi	r19, 0x00	; 0
    4b34:	40 e0       	ldi	r20, 0x00	; 0
    4b36:	50 e0       	ldi	r21, 0x00	; 0
    4b38:	cc cd       	rjmp	.-1128   	; 0x46d2 <row+0x65e>

00004b3a <tickefx>:
    4b3a:	ef 92       	push	r14
    4b3c:	ff 92       	push	r15
    4b3e:	0f 93       	push	r16
    4b40:	1f 93       	push	r17
    4b42:	df 93       	push	r29
    4b44:	cf 93       	push	r28
    4b46:	cd b7       	in	r28, 0x3d	; 61
    4b48:	de b7       	in	r29, 0x3e	; 62
    4b4a:	29 97       	sbiw	r28, 0x09	; 9
    4b4c:	0f b6       	in	r0, 0x3f	; 63
    4b4e:	f8 94       	cli
    4b50:	de bf       	out	0x3e, r29	; 62
    4b52:	0f be       	out	0x3f, r0	; 63
    4b54:	cd bf       	out	0x3d, r28	; 61
    4b56:	8e 01       	movw	r16, r28
    4b58:	0f 5f       	subi	r16, 0xFF	; 255
    4b5a:	1f 4f       	sbci	r17, 0xFF	; 255
    4b5c:	d8 01       	movw	r26, r16
    4b5e:	e5 e9       	ldi	r30, 0x95	; 149
    4b60:	f1 e0       	ldi	r31, 0x01	; 1
    4b62:	89 e0       	ldi	r24, 0x09	; 9
    4b64:	01 90       	ld	r0, Z+
    4b66:	0d 92       	st	X+, r0
    4b68:	81 50       	subi	r24, 0x01	; 1
    4b6a:	e1 f7       	brne	.-8      	; 0x4b64 <tickefx+0x2a>
    4b6c:	82 ed       	ldi	r24, 0xD2	; 210
    4b6e:	92 e0       	ldi	r25, 0x02	; 2
    4b70:	9a 83       	std	Y+2, r25	; 0x02
    4b72:	89 83       	std	Y+1, r24	; 0x01
    4b74:	e0 91 d6 02 	lds	r30, 0x02D6
    4b78:	ee 23       	and	r30, r30
    4b7a:	29 f4       	brne	.+10     	; 0x4b86 <tickefx+0x4c>
    4b7c:	80 91 d7 02 	lds	r24, 0x02D7
    4b80:	88 23       	and	r24, r24
    4b82:	09 f4       	brne	.+2      	; 0x4b86 <tickefx+0x4c>
    4b84:	48 c0       	rjmp	.+144    	; 0x4c16 <tickefx+0xdc>
    4b86:	8a e8       	ldi	r24, 0x8A	; 138
    4b88:	95 e0       	ldi	r25, 0x05	; 5
    4b8a:	9c 83       	std	Y+4, r25	; 0x04
    4b8c:	8b 83       	std	Y+3, r24	; 0x03
    4b8e:	f0 e0       	ldi	r31, 0x00	; 0
    4b90:	ee 0f       	add	r30, r30
    4b92:	ff 1f       	adc	r31, r31
    4b94:	e0 5e       	subi	r30, 0xE0	; 224
    4b96:	fe 4f       	sbci	r31, 0xFE	; 254
    4b98:	01 90       	ld	r0, Z+
    4b9a:	f0 81       	ld	r31, Z
    4b9c:	e0 2d       	mov	r30, r0
    4b9e:	30 97       	sbiw	r30, 0x00	; 0
    4ba0:	d1 f1       	breq	.+116    	; 0x4c16 <tickefx+0xdc>
    4ba2:	c8 01       	movw	r24, r16
    4ba4:	09 95       	icall
    4ba6:	8d 81       	ldd	r24, Y+5	; 0x05
    4ba8:	8f 33       	cpi	r24, 0x3F	; 63
    4baa:	09 f4       	brne	.+2      	; 0x4bae <tickefx+0x74>
    4bac:	97 c1       	rjmp	.+814    	; 0x4edc <tickefx+0x3a2>
    4bae:	99 85       	ldd	r25, Y+9	; 0x09
    4bb0:	94 fd       	sbrc	r25, 4
    4bb2:	96 c1       	rjmp	.+812    	; 0x4ee0 <tickefx+0x3a6>
    4bb4:	90 ff       	sbrs	r25, 0
    4bb6:	09 c0       	rjmp	.+18     	; 0x4bca <tickefx+0x90>
    4bb8:	eb 81       	ldd	r30, Y+3	; 0x03
    4bba:	fc 81       	ldd	r31, Y+4	; 0x04
    4bbc:	a9 81       	ldd	r26, Y+1	; 0x01
    4bbe:	ba 81       	ldd	r27, Y+2	; 0x02
    4bc0:	11 96       	adiw	r26, 0x01	; 1
    4bc2:	8c 91       	ld	r24, X
    4bc4:	11 97       	sbiw	r26, 0x01	; 1
    4bc6:	80 87       	std	Z+8, r24	; 0x08
    4bc8:	99 85       	ldd	r25, Y+9	; 0x09
    4bca:	93 ff       	sbrs	r25, 3
    4bcc:	08 c0       	rjmp	.+16     	; 0x4bde <tickefx+0xa4>
    4bce:	eb 81       	ldd	r30, Y+3	; 0x03
    4bd0:	fc 81       	ldd	r31, Y+4	; 0x04
    4bd2:	a9 81       	ldd	r26, Y+1	; 0x01
    4bd4:	ba 81       	ldd	r27, Y+2	; 0x02
    4bd6:	12 96       	adiw	r26, 0x02	; 2
    4bd8:	8c 91       	ld	r24, X
    4bda:	12 97       	sbiw	r26, 0x02	; 2
    4bdc:	81 87       	std	Z+9, r24	; 0x09
    4bde:	91 ff       	sbrs	r25, 1
    4be0:	1a c0       	rjmp	.+52     	; 0x4c16 <tickefx+0xdc>
    4be2:	e9 81       	ldd	r30, Y+1	; 0x01
    4be4:	fa 81       	ldd	r31, Y+2	; 0x02
    4be6:	26 81       	ldd	r18, Z+6	; 0x06
    4be8:	37 81       	ldd	r19, Z+7	; 0x07
    4bea:	83 89       	ldd	r24, Z+19	; 0x13
    4bec:	94 89       	ldd	r25, Z+20	; 0x14
    4bee:	00 97       	sbiw	r24, 0x00	; 0
    4bf0:	09 f0       	breq	.+2      	; 0x4bf4 <tickefx+0xba>
    4bf2:	44 c1       	rjmp	.+648    	; 0x4e7c <tickefx+0x342>
    4bf4:	40 e0       	ldi	r20, 0x00	; 0
    4bf6:	50 e0       	ldi	r21, 0x00	; 0
    4bf8:	eb 80       	ldd	r14, Y+3	; 0x03
    4bfa:	fc 80       	ldd	r15, Y+4	; 0x04
    4bfc:	60 91 ce 02 	lds	r22, 0x02CE
    4c00:	70 91 cf 02 	lds	r23, 0x02CF
    4c04:	80 91 d0 02 	lds	r24, 0x02D0
    4c08:	90 91 d1 02 	lds	r25, 0x02D1
    4c0c:	0e 94 dc 2e 	call	0x5db8	; 0x5db8 <__udivmodsi4>
    4c10:	f7 01       	movw	r30, r14
    4c12:	37 83       	std	Z+7, r19	; 0x07
    4c14:	26 83       	std	Z+6, r18	; 0x06
    4c16:	d8 01       	movw	r26, r16
    4c18:	e5 e9       	ldi	r30, 0x95	; 149
    4c1a:	f1 e0       	ldi	r31, 0x01	; 1
    4c1c:	89 e0       	ldi	r24, 0x09	; 9
    4c1e:	01 90       	ld	r0, Z+
    4c20:	0d 92       	st	X+, r0
    4c22:	81 50       	subi	r24, 0x01	; 1
    4c24:	e1 f7       	brne	.-8      	; 0x4c1e <tickefx+0xe4>
    4c26:	8d ee       	ldi	r24, 0xED	; 237
    4c28:	92 e0       	ldi	r25, 0x02	; 2
    4c2a:	9a 83       	std	Y+2, r25	; 0x02
    4c2c:	89 83       	std	Y+1, r24	; 0x01
    4c2e:	e0 91 f1 02 	lds	r30, 0x02F1
    4c32:	ee 23       	and	r30, r30
    4c34:	29 f4       	brne	.+10     	; 0x4c40 <tickefx+0x106>
    4c36:	80 91 f2 02 	lds	r24, 0x02F2
    4c3a:	88 23       	and	r24, r24
    4c3c:	09 f4       	brne	.+2      	; 0x4c40 <tickefx+0x106>
    4c3e:	48 c0       	rjmp	.+144    	; 0x4cd0 <tickefx+0x196>
    4c40:	8c e9       	ldi	r24, 0x9C	; 156
    4c42:	95 e0       	ldi	r25, 0x05	; 5
    4c44:	9c 83       	std	Y+4, r25	; 0x04
    4c46:	8b 83       	std	Y+3, r24	; 0x03
    4c48:	f0 e0       	ldi	r31, 0x00	; 0
    4c4a:	ee 0f       	add	r30, r30
    4c4c:	ff 1f       	adc	r31, r31
    4c4e:	e0 5e       	subi	r30, 0xE0	; 224
    4c50:	fe 4f       	sbci	r31, 0xFE	; 254
    4c52:	01 90       	ld	r0, Z+
    4c54:	f0 81       	ld	r31, Z
    4c56:	e0 2d       	mov	r30, r0
    4c58:	30 97       	sbiw	r30, 0x00	; 0
    4c5a:	d1 f1       	breq	.+116    	; 0x4cd0 <tickefx+0x196>
    4c5c:	c8 01       	movw	r24, r16
    4c5e:	09 95       	icall
    4c60:	8d 81       	ldd	r24, Y+5	; 0x05
    4c62:	8f 33       	cpi	r24, 0x3F	; 63
    4c64:	09 f4       	brne	.+2      	; 0x4c68 <tickefx+0x12e>
    4c66:	36 c1       	rjmp	.+620    	; 0x4ed4 <tickefx+0x39a>
    4c68:	99 85       	ldd	r25, Y+9	; 0x09
    4c6a:	94 fd       	sbrc	r25, 4
    4c6c:	5c c2       	rjmp	.+1208   	; 0x5126 <tickefx+0x5ec>
    4c6e:	90 ff       	sbrs	r25, 0
    4c70:	09 c0       	rjmp	.+18     	; 0x4c84 <tickefx+0x14a>
    4c72:	eb 81       	ldd	r30, Y+3	; 0x03
    4c74:	fc 81       	ldd	r31, Y+4	; 0x04
    4c76:	a9 81       	ldd	r26, Y+1	; 0x01
    4c78:	ba 81       	ldd	r27, Y+2	; 0x02
    4c7a:	11 96       	adiw	r26, 0x01	; 1
    4c7c:	8c 91       	ld	r24, X
    4c7e:	11 97       	sbiw	r26, 0x01	; 1
    4c80:	80 87       	std	Z+8, r24	; 0x08
    4c82:	99 85       	ldd	r25, Y+9	; 0x09
    4c84:	93 ff       	sbrs	r25, 3
    4c86:	08 c0       	rjmp	.+16     	; 0x4c98 <tickefx+0x15e>
    4c88:	eb 81       	ldd	r30, Y+3	; 0x03
    4c8a:	fc 81       	ldd	r31, Y+4	; 0x04
    4c8c:	a9 81       	ldd	r26, Y+1	; 0x01
    4c8e:	ba 81       	ldd	r27, Y+2	; 0x02
    4c90:	12 96       	adiw	r26, 0x02	; 2
    4c92:	8c 91       	ld	r24, X
    4c94:	12 97       	sbiw	r26, 0x02	; 2
    4c96:	81 87       	std	Z+9, r24	; 0x09
    4c98:	91 ff       	sbrs	r25, 1
    4c9a:	1a c0       	rjmp	.+52     	; 0x4cd0 <tickefx+0x196>
    4c9c:	e9 81       	ldd	r30, Y+1	; 0x01
    4c9e:	fa 81       	ldd	r31, Y+2	; 0x02
    4ca0:	26 81       	ldd	r18, Z+6	; 0x06
    4ca2:	37 81       	ldd	r19, Z+7	; 0x07
    4ca4:	83 89       	ldd	r24, Z+19	; 0x13
    4ca6:	94 89       	ldd	r25, Z+20	; 0x14
    4ca8:	00 97       	sbiw	r24, 0x00	; 0
    4caa:	09 f0       	breq	.+2      	; 0x4cae <tickefx+0x174>
    4cac:	03 c1       	rjmp	.+518    	; 0x4eb4 <tickefx+0x37a>
    4cae:	40 e0       	ldi	r20, 0x00	; 0
    4cb0:	50 e0       	ldi	r21, 0x00	; 0
    4cb2:	eb 80       	ldd	r14, Y+3	; 0x03
    4cb4:	fc 80       	ldd	r15, Y+4	; 0x04
    4cb6:	60 91 ce 02 	lds	r22, 0x02CE
    4cba:	70 91 cf 02 	lds	r23, 0x02CF
    4cbe:	80 91 d0 02 	lds	r24, 0x02D0
    4cc2:	90 91 d1 02 	lds	r25, 0x02D1
    4cc6:	0e 94 dc 2e 	call	0x5db8	; 0x5db8 <__udivmodsi4>
    4cca:	f7 01       	movw	r30, r14
    4ccc:	37 83       	std	Z+7, r19	; 0x07
    4cce:	26 83       	std	Z+6, r18	; 0x06
    4cd0:	d8 01       	movw	r26, r16
    4cd2:	e5 e9       	ldi	r30, 0x95	; 149
    4cd4:	f1 e0       	ldi	r31, 0x01	; 1
    4cd6:	89 e0       	ldi	r24, 0x09	; 9
    4cd8:	01 90       	ld	r0, Z+
    4cda:	0d 92       	st	X+, r0
    4cdc:	81 50       	subi	r24, 0x01	; 1
    4cde:	e1 f7       	brne	.-8      	; 0x4cd8 <tickefx+0x19e>
    4ce0:	88 e0       	ldi	r24, 0x08	; 8
    4ce2:	93 e0       	ldi	r25, 0x03	; 3
    4ce4:	9a 83       	std	Y+2, r25	; 0x02
    4ce6:	89 83       	std	Y+1, r24	; 0x01
    4ce8:	e0 91 0c 03 	lds	r30, 0x030C
    4cec:	ee 23       	and	r30, r30
    4cee:	29 f4       	brne	.+10     	; 0x4cfa <tickefx+0x1c0>
    4cf0:	80 91 0d 03 	lds	r24, 0x030D
    4cf4:	88 23       	and	r24, r24
    4cf6:	09 f4       	brne	.+2      	; 0x4cfa <tickefx+0x1c0>
    4cf8:	48 c0       	rjmp	.+144    	; 0x4d8a <tickefx+0x250>
    4cfa:	8e ea       	ldi	r24, 0xAE	; 174
    4cfc:	95 e0       	ldi	r25, 0x05	; 5
    4cfe:	9c 83       	std	Y+4, r25	; 0x04
    4d00:	8b 83       	std	Y+3, r24	; 0x03
    4d02:	f0 e0       	ldi	r31, 0x00	; 0
    4d04:	ee 0f       	add	r30, r30
    4d06:	ff 1f       	adc	r31, r31
    4d08:	e0 5e       	subi	r30, 0xE0	; 224
    4d0a:	fe 4f       	sbci	r31, 0xFE	; 254
    4d0c:	01 90       	ld	r0, Z+
    4d0e:	f0 81       	ld	r31, Z
    4d10:	e0 2d       	mov	r30, r0
    4d12:	30 97       	sbiw	r30, 0x00	; 0
    4d14:	d1 f1       	breq	.+116    	; 0x4d8a <tickefx+0x250>
    4d16:	c8 01       	movw	r24, r16
    4d18:	09 95       	icall
    4d1a:	8d 81       	ldd	r24, Y+5	; 0x05
    4d1c:	8f 33       	cpi	r24, 0x3F	; 63
    4d1e:	09 f4       	brne	.+2      	; 0x4d22 <tickefx+0x1e8>
    4d20:	db c0       	rjmp	.+438    	; 0x4ed8 <tickefx+0x39e>
    4d22:	99 85       	ldd	r25, Y+9	; 0x09
    4d24:	94 fd       	sbrc	r25, 4
    4d26:	9e c1       	rjmp	.+828    	; 0x5064 <tickefx+0x52a>
    4d28:	90 ff       	sbrs	r25, 0
    4d2a:	09 c0       	rjmp	.+18     	; 0x4d3e <tickefx+0x204>
    4d2c:	eb 81       	ldd	r30, Y+3	; 0x03
    4d2e:	fc 81       	ldd	r31, Y+4	; 0x04
    4d30:	a9 81       	ldd	r26, Y+1	; 0x01
    4d32:	ba 81       	ldd	r27, Y+2	; 0x02
    4d34:	11 96       	adiw	r26, 0x01	; 1
    4d36:	8c 91       	ld	r24, X
    4d38:	11 97       	sbiw	r26, 0x01	; 1
    4d3a:	80 87       	std	Z+8, r24	; 0x08
    4d3c:	99 85       	ldd	r25, Y+9	; 0x09
    4d3e:	93 ff       	sbrs	r25, 3
    4d40:	08 c0       	rjmp	.+16     	; 0x4d52 <tickefx+0x218>
    4d42:	eb 81       	ldd	r30, Y+3	; 0x03
    4d44:	fc 81       	ldd	r31, Y+4	; 0x04
    4d46:	a9 81       	ldd	r26, Y+1	; 0x01
    4d48:	ba 81       	ldd	r27, Y+2	; 0x02
    4d4a:	12 96       	adiw	r26, 0x02	; 2
    4d4c:	8c 91       	ld	r24, X
    4d4e:	12 97       	sbiw	r26, 0x02	; 2
    4d50:	81 87       	std	Z+9, r24	; 0x09
    4d52:	91 ff       	sbrs	r25, 1
    4d54:	1a c0       	rjmp	.+52     	; 0x4d8a <tickefx+0x250>
    4d56:	e9 81       	ldd	r30, Y+1	; 0x01
    4d58:	fa 81       	ldd	r31, Y+2	; 0x02
    4d5a:	26 81       	ldd	r18, Z+6	; 0x06
    4d5c:	37 81       	ldd	r19, Z+7	; 0x07
    4d5e:	83 89       	ldd	r24, Z+19	; 0x13
    4d60:	94 89       	ldd	r25, Z+20	; 0x14
    4d62:	00 97       	sbiw	r24, 0x00	; 0
    4d64:	09 f0       	breq	.+2      	; 0x4d68 <tickefx+0x22e>
    4d66:	98 c0       	rjmp	.+304    	; 0x4e98 <tickefx+0x35e>
    4d68:	40 e0       	ldi	r20, 0x00	; 0
    4d6a:	50 e0       	ldi	r21, 0x00	; 0
    4d6c:	eb 80       	ldd	r14, Y+3	; 0x03
    4d6e:	fc 80       	ldd	r15, Y+4	; 0x04
    4d70:	60 91 ce 02 	lds	r22, 0x02CE
    4d74:	70 91 cf 02 	lds	r23, 0x02CF
    4d78:	80 91 d0 02 	lds	r24, 0x02D0
    4d7c:	90 91 d1 02 	lds	r25, 0x02D1
    4d80:	0e 94 dc 2e 	call	0x5db8	; 0x5db8 <__udivmodsi4>
    4d84:	f7 01       	movw	r30, r14
    4d86:	37 83       	std	Z+7, r19	; 0x07
    4d88:	26 83       	std	Z+6, r18	; 0x06
    4d8a:	d8 01       	movw	r26, r16
    4d8c:	e5 e9       	ldi	r30, 0x95	; 149
    4d8e:	f1 e0       	ldi	r31, 0x01	; 1
    4d90:	89 e0       	ldi	r24, 0x09	; 9
    4d92:	01 90       	ld	r0, Z+
    4d94:	0d 92       	st	X+, r0
    4d96:	81 50       	subi	r24, 0x01	; 1
    4d98:	e1 f7       	brne	.-8      	; 0x4d92 <tickefx+0x258>
    4d9a:	83 e2       	ldi	r24, 0x23	; 35
    4d9c:	93 e0       	ldi	r25, 0x03	; 3
    4d9e:	9a 83       	std	Y+2, r25	; 0x02
    4da0:	89 83       	std	Y+1, r24	; 0x01
    4da2:	e0 91 27 03 	lds	r30, 0x0327
    4da6:	ee 23       	and	r30, r30
    4da8:	29 f4       	brne	.+10     	; 0x4db4 <tickefx+0x27a>
    4daa:	80 91 28 03 	lds	r24, 0x0328
    4dae:	88 23       	and	r24, r24
    4db0:	09 f4       	brne	.+2      	; 0x4db4 <tickefx+0x27a>
    4db2:	47 c0       	rjmp	.+142    	; 0x4e42 <tickefx+0x308>
    4db4:	80 ec       	ldi	r24, 0xC0	; 192
    4db6:	95 e0       	ldi	r25, 0x05	; 5
    4db8:	9c 83       	std	Y+4, r25	; 0x04
    4dba:	8b 83       	std	Y+3, r24	; 0x03
    4dbc:	f0 e0       	ldi	r31, 0x00	; 0
    4dbe:	ee 0f       	add	r30, r30
    4dc0:	ff 1f       	adc	r31, r31
    4dc2:	e0 5e       	subi	r30, 0xE0	; 224
    4dc4:	fe 4f       	sbci	r31, 0xFE	; 254
    4dc6:	01 90       	ld	r0, Z+
    4dc8:	f0 81       	ld	r31, Z
    4dca:	e0 2d       	mov	r30, r0
    4dcc:	30 97       	sbiw	r30, 0x00	; 0
    4dce:	c9 f1       	breq	.+114    	; 0x4e42 <tickefx+0x308>
    4dd0:	c8 01       	movw	r24, r16
    4dd2:	09 95       	icall
    4dd4:	8d 81       	ldd	r24, Y+5	; 0x05
    4dd6:	8f 33       	cpi	r24, 0x3F	; 63
    4dd8:	09 f4       	brne	.+2      	; 0x4ddc <tickefx+0x2a2>
    4dda:	7a c0       	rjmp	.+244    	; 0x4ed0 <tickefx+0x396>
    4ddc:	99 85       	ldd	r25, Y+9	; 0x09
    4dde:	94 fd       	sbrc	r25, 4
    4de0:	e0 c0       	rjmp	.+448    	; 0x4fa2 <tickefx+0x468>
    4de2:	90 ff       	sbrs	r25, 0
    4de4:	09 c0       	rjmp	.+18     	; 0x4df8 <tickefx+0x2be>
    4de6:	eb 81       	ldd	r30, Y+3	; 0x03
    4de8:	fc 81       	ldd	r31, Y+4	; 0x04
    4dea:	a9 81       	ldd	r26, Y+1	; 0x01
    4dec:	ba 81       	ldd	r27, Y+2	; 0x02
    4dee:	11 96       	adiw	r26, 0x01	; 1
    4df0:	8c 91       	ld	r24, X
    4df2:	11 97       	sbiw	r26, 0x01	; 1
    4df4:	80 87       	std	Z+8, r24	; 0x08
    4df6:	99 85       	ldd	r25, Y+9	; 0x09
    4df8:	93 ff       	sbrs	r25, 3
    4dfa:	08 c0       	rjmp	.+16     	; 0x4e0c <tickefx+0x2d2>
    4dfc:	eb 81       	ldd	r30, Y+3	; 0x03
    4dfe:	fc 81       	ldd	r31, Y+4	; 0x04
    4e00:	a9 81       	ldd	r26, Y+1	; 0x01
    4e02:	ba 81       	ldd	r27, Y+2	; 0x02
    4e04:	12 96       	adiw	r26, 0x02	; 2
    4e06:	8c 91       	ld	r24, X
    4e08:	12 97       	sbiw	r26, 0x02	; 2
    4e0a:	81 87       	std	Z+9, r24	; 0x09
    4e0c:	91 ff       	sbrs	r25, 1
    4e0e:	19 c0       	rjmp	.+50     	; 0x4e42 <tickefx+0x308>
    4e10:	e9 81       	ldd	r30, Y+1	; 0x01
    4e12:	fa 81       	ldd	r31, Y+2	; 0x02
    4e14:	26 81       	ldd	r18, Z+6	; 0x06
    4e16:	37 81       	ldd	r19, Z+7	; 0x07
    4e18:	83 89       	ldd	r24, Z+19	; 0x13
    4e1a:	94 89       	ldd	r25, Z+20	; 0x14
    4e1c:	00 97       	sbiw	r24, 0x00	; 0
    4e1e:	f1 f4       	brne	.+60     	; 0x4e5c <tickefx+0x322>
    4e20:	40 e0       	ldi	r20, 0x00	; 0
    4e22:	50 e0       	ldi	r21, 0x00	; 0
    4e24:	0b 81       	ldd	r16, Y+3	; 0x03
    4e26:	1c 81       	ldd	r17, Y+4	; 0x04
    4e28:	60 91 ce 02 	lds	r22, 0x02CE
    4e2c:	70 91 cf 02 	lds	r23, 0x02CF
    4e30:	80 91 d0 02 	lds	r24, 0x02D0
    4e34:	90 91 d1 02 	lds	r25, 0x02D1
    4e38:	0e 94 dc 2e 	call	0x5db8	; 0x5db8 <__udivmodsi4>
    4e3c:	f8 01       	movw	r30, r16
    4e3e:	37 83       	std	Z+7, r19	; 0x07
    4e40:	26 83       	std	Z+6, r18	; 0x06
    4e42:	29 96       	adiw	r28, 0x09	; 9
    4e44:	0f b6       	in	r0, 0x3f	; 63
    4e46:	f8 94       	cli
    4e48:	de bf       	out	0x3e, r29	; 62
    4e4a:	0f be       	out	0x3f, r0	; 63
    4e4c:	cd bf       	out	0x3d, r28	; 61
    4e4e:	cf 91       	pop	r28
    4e50:	df 91       	pop	r29
    4e52:	1f 91       	pop	r17
    4e54:	0f 91       	pop	r16
    4e56:	ff 90       	pop	r15
    4e58:	ef 90       	pop	r14
    4e5a:	08 95       	ret
    4e5c:	28 0f       	add	r18, r24
    4e5e:	39 1f       	adc	r19, r25
    4e60:	43 e0       	ldi	r20, 0x03	; 3
    4e62:	29 35       	cpi	r18, 0x59	; 89
    4e64:	34 07       	cpc	r19, r20
    4e66:	0c f0       	brlt	.+2      	; 0x4e6a <tickefx+0x330>
    4e68:	c8 c1       	rjmp	.+912    	; 0x51fa <tickefx+0x6c0>
    4e6a:	21 37       	cpi	r18, 0x71	; 113
    4e6c:	31 05       	cpc	r19, r1
    4e6e:	0c f0       	brlt	.+2      	; 0x4e72 <tickefx+0x338>
    4e70:	25 c2       	rjmp	.+1098   	; 0x52bc <tickefx+0x782>
    4e72:	21 e7       	ldi	r18, 0x71	; 113
    4e74:	30 e0       	ldi	r19, 0x00	; 0
    4e76:	40 e0       	ldi	r20, 0x00	; 0
    4e78:	50 e0       	ldi	r21, 0x00	; 0
    4e7a:	c3 c1       	rjmp	.+902    	; 0x5202 <tickefx+0x6c8>
    4e7c:	28 0f       	add	r18, r24
    4e7e:	39 1f       	adc	r19, r25
    4e80:	43 e0       	ldi	r20, 0x03	; 3
    4e82:	29 35       	cpi	r18, 0x59	; 89
    4e84:	34 07       	cpc	r19, r20
    4e86:	0c f4       	brge	.+2      	; 0x4e8a <tickefx+0x350>
    4e88:	af c1       	rjmp	.+862    	; 0x51e8 <tickefx+0x6ae>
    4e8a:	28 e5       	ldi	r18, 0x58	; 88
    4e8c:	33 e0       	ldi	r19, 0x03	; 3
    4e8e:	40 e0       	ldi	r20, 0x00	; 0
    4e90:	50 e0       	ldi	r21, 0x00	; 0
    4e92:	14 8a       	std	Z+20, r1	; 0x14
    4e94:	13 8a       	std	Z+19, r1	; 0x13
    4e96:	b0 ce       	rjmp	.-672    	; 0x4bf8 <tickefx+0xbe>
    4e98:	28 0f       	add	r18, r24
    4e9a:	39 1f       	adc	r19, r25
    4e9c:	43 e0       	ldi	r20, 0x03	; 3
    4e9e:	29 35       	cpi	r18, 0x59	; 89
    4ea0:	34 07       	cpc	r19, r20
    4ea2:	0c f4       	brge	.+2      	; 0x4ea6 <tickefx+0x36c>
    4ea4:	b1 c1       	rjmp	.+866    	; 0x5208 <tickefx+0x6ce>
    4ea6:	28 e5       	ldi	r18, 0x58	; 88
    4ea8:	33 e0       	ldi	r19, 0x03	; 3
    4eaa:	40 e0       	ldi	r20, 0x00	; 0
    4eac:	50 e0       	ldi	r21, 0x00	; 0
    4eae:	14 8a       	std	Z+20, r1	; 0x14
    4eb0:	13 8a       	std	Z+19, r1	; 0x13
    4eb2:	5c cf       	rjmp	.-328    	; 0x4d6c <tickefx+0x232>
    4eb4:	28 0f       	add	r18, r24
    4eb6:	39 1f       	adc	r19, r25
    4eb8:	43 e0       	ldi	r20, 0x03	; 3
    4eba:	29 35       	cpi	r18, 0x59	; 89
    4ebc:	34 07       	cpc	r19, r20
    4ebe:	0c f4       	brge	.+2      	; 0x4ec2 <tickefx+0x388>
    4ec0:	ac c1       	rjmp	.+856    	; 0x521a <tickefx+0x6e0>
    4ec2:	28 e5       	ldi	r18, 0x58	; 88
    4ec4:	33 e0       	ldi	r19, 0x03	; 3
    4ec6:	40 e0       	ldi	r20, 0x00	; 0
    4ec8:	50 e0       	ldi	r21, 0x00	; 0
    4eca:	14 8a       	std	Z+20, r1	; 0x14
    4ecc:	13 8a       	std	Z+19, r1	; 0x13
    4ece:	f1 ce       	rjmp	.-542    	; 0x4cb2 <tickefx+0x178>
    4ed0:	99 85       	ldd	r25, Y+9	; 0x09
    4ed2:	87 cf       	rjmp	.-242    	; 0x4de2 <tickefx+0x2a8>
    4ed4:	99 85       	ldd	r25, Y+9	; 0x09
    4ed6:	cb ce       	rjmp	.-618    	; 0x4c6e <tickefx+0x134>
    4ed8:	99 85       	ldd	r25, Y+9	; 0x09
    4eda:	26 cf       	rjmp	.-436    	; 0x4d28 <tickefx+0x1ee>
    4edc:	99 85       	ldd	r25, Y+9	; 0x09
    4ede:	6a ce       	rjmp	.-812    	; 0x4bb4 <tickefx+0x7a>
    4ee0:	a9 81       	ldd	r26, Y+1	; 0x01
    4ee2:	ba 81       	ldd	r27, Y+2	; 0x02
    4ee4:	8c 91       	ld	r24, X
    4ee6:	8f 3f       	cpi	r24, 0xFF	; 255
    4ee8:	09 f4       	brne	.+2      	; 0x4eec <tickefx+0x3b2>
    4eea:	64 ce       	rjmp	.-824    	; 0x4bb4 <tickefx+0x7a>
    4eec:	90 e0       	ldi	r25, 0x00	; 0
    4eee:	13 96       	adiw	r26, 0x03	; 3
    4ef0:	ec 91       	ld	r30, X
    4ef2:	13 97       	sbiw	r26, 0x03	; 3
    4ef4:	f0 e0       	ldi	r31, 0x00	; 0
    4ef6:	ee 0f       	add	r30, r30
    4ef8:	ff 1f       	adc	r31, r31
    4efa:	ee 5b       	subi	r30, 0xBE	; 190
    4efc:	fe 4f       	sbci	r31, 0xFE	; 254
    4efe:	20 81       	ld	r18, Z
    4f00:	31 81       	ldd	r19, Z+1	; 0x01
    4f02:	17 96       	adiw	r26, 0x07	; 7
    4f04:	3c 93       	st	X, r19
    4f06:	2e 93       	st	-X, r18
    4f08:	16 97       	sbiw	r26, 0x06	; 6
    4f0a:	e3 e0       	ldi	r30, 0x03	; 3
    4f0c:	29 35       	cpi	r18, 0x59	; 89
    4f0e:	3e 07       	cpc	r19, r30
    4f10:	30 f0       	brcs	.+12     	; 0x4f1e <tickefx+0x3e4>
    4f12:	28 e5       	ldi	r18, 0x58	; 88
    4f14:	33 e0       	ldi	r19, 0x03	; 3
    4f16:	17 96       	adiw	r26, 0x07	; 7
    4f18:	3c 93       	st	X, r19
    4f1a:	2e 93       	st	-X, r18
    4f1c:	16 97       	sbiw	r26, 0x06	; 6
    4f1e:	eb 81       	ldd	r30, Y+3	; 0x03
    4f20:	fc 81       	ldd	r31, Y+4	; 0x04
    4f22:	dc 01       	movw	r26, r24
    4f24:	aa 0f       	add	r26, r26
    4f26:	bb 1f       	adc	r27, r27
    4f28:	ae 52       	subi	r26, 0x2E	; 46
    4f2a:	ba 4f       	sbci	r27, 0xFA	; 250
    4f2c:	2d 91       	ld	r18, X+
    4f2e:	3c 91       	ld	r19, X
    4f30:	31 83       	std	Z+1, r19	; 0x01
    4f32:	20 83       	st	Z, r18
    4f34:	12 82       	std	Z+2, r1	; 0x02
    4f36:	13 82       	std	Z+3, r1	; 0x03
    4f38:	14 82       	std	Z+4, r1	; 0x04
    4f3a:	15 82       	std	Z+5, r1	; 0x05
    4f3c:	69 85       	ldd	r22, Y+9	; 0x09
    4f3e:	62 60       	ori	r22, 0x02	; 2
    4f40:	69 87       	std	Y+9, r22	; 0x09
    4f42:	dc 01       	movw	r26, r24
    4f44:	aa 0f       	add	r26, r26
    4f46:	bb 1f       	adc	r27, r27
    4f48:	aa 0f       	add	r26, r26
    4f4a:	bb 1f       	adc	r27, r27
    4f4c:	aa 0f       	add	r26, r26
    4f4e:	bb 1f       	adc	r27, r27
    4f50:	a2 54       	subi	r26, 0x42	; 66
    4f52:	be 4f       	sbci	r27, 0xFE	; 254
    4f54:	16 96       	adiw	r26, 0x06	; 6
    4f56:	8d 91       	ld	r24, X+
    4f58:	9c 91       	ld	r25, X
    4f5a:	17 97       	sbiw	r26, 0x07	; 7
    4f5c:	00 97       	sbiw	r24, 0x00	; 0
    4f5e:	09 f0       	breq	.+2      	; 0x4f62 <tickefx+0x428>
    4f60:	9b c1       	rjmp	.+822    	; 0x5298 <tickefx+0x75e>
    4f62:	2d 91       	ld	r18, X+
    4f64:	3c 91       	ld	r19, X
    4f66:	40 e0       	ldi	r20, 0x00	; 0
    4f68:	50 e0       	ldi	r21, 0x00	; 0
    4f6a:	a9 e0       	ldi	r26, 0x09	; 9
    4f6c:	22 0f       	add	r18, r18
    4f6e:	33 1f       	adc	r19, r19
    4f70:	44 1f       	adc	r20, r20
    4f72:	55 1f       	adc	r21, r21
    4f74:	aa 95       	dec	r26
    4f76:	d1 f7       	brne	.-12     	; 0x4f6c <tickefx+0x432>
    4f78:	22 87       	std	Z+10, r18	; 0x0a
    4f7a:	33 87       	std	Z+11, r19	; 0x0b
    4f7c:	44 87       	std	Z+12, r20	; 0x0c
    4f7e:	55 87       	std	Z+13, r21	; 0x0d
    4f80:	aa 27       	eor	r26, r26
    4f82:	97 fd       	sbrc	r25, 7
    4f84:	a0 95       	com	r26
    4f86:	ba 2f       	mov	r27, r26
    4f88:	29 e0       	ldi	r18, 0x09	; 9
    4f8a:	88 0f       	add	r24, r24
    4f8c:	99 1f       	adc	r25, r25
    4f8e:	aa 1f       	adc	r26, r26
    4f90:	bb 1f       	adc	r27, r27
    4f92:	2a 95       	dec	r18
    4f94:	d1 f7       	brne	.-12     	; 0x4f8a <tickefx+0x450>
    4f96:	86 87       	std	Z+14, r24	; 0x0e
    4f98:	97 87       	std	Z+15, r25	; 0x0f
    4f9a:	a0 8b       	std	Z+16, r26	; 0x10
    4f9c:	b1 8b       	std	Z+17, r27	; 0x11
    4f9e:	96 2f       	mov	r25, r22
    4fa0:	09 ce       	rjmp	.-1006   	; 0x4bb4 <tickefx+0x7a>
    4fa2:	a9 81       	ldd	r26, Y+1	; 0x01
    4fa4:	ba 81       	ldd	r27, Y+2	; 0x02
    4fa6:	8c 91       	ld	r24, X
    4fa8:	8f 3f       	cpi	r24, 0xFF	; 255
    4faa:	09 f4       	brne	.+2      	; 0x4fae <tickefx+0x474>
    4fac:	1a cf       	rjmp	.-460    	; 0x4de2 <tickefx+0x2a8>
    4fae:	90 e0       	ldi	r25, 0x00	; 0
    4fb0:	13 96       	adiw	r26, 0x03	; 3
    4fb2:	ec 91       	ld	r30, X
    4fb4:	13 97       	sbiw	r26, 0x03	; 3
    4fb6:	f0 e0       	ldi	r31, 0x00	; 0
    4fb8:	ee 0f       	add	r30, r30
    4fba:	ff 1f       	adc	r31, r31
    4fbc:	ee 5b       	subi	r30, 0xBE	; 190
    4fbe:	fe 4f       	sbci	r31, 0xFE	; 254
    4fc0:	20 81       	ld	r18, Z
    4fc2:	31 81       	ldd	r19, Z+1	; 0x01
    4fc4:	17 96       	adiw	r26, 0x07	; 7
    4fc6:	3c 93       	st	X, r19
    4fc8:	2e 93       	st	-X, r18
    4fca:	16 97       	sbiw	r26, 0x06	; 6
    4fcc:	f3 e0       	ldi	r31, 0x03	; 3
    4fce:	29 35       	cpi	r18, 0x59	; 89
    4fd0:	3f 07       	cpc	r19, r31
    4fd2:	30 f0       	brcs	.+12     	; 0x4fe0 <tickefx+0x4a6>
    4fd4:	28 e5       	ldi	r18, 0x58	; 88
    4fd6:	33 e0       	ldi	r19, 0x03	; 3
    4fd8:	17 96       	adiw	r26, 0x07	; 7
    4fda:	3c 93       	st	X, r19
    4fdc:	2e 93       	st	-X, r18
    4fde:	16 97       	sbiw	r26, 0x06	; 6
    4fe0:	eb 81       	ldd	r30, Y+3	; 0x03
    4fe2:	fc 81       	ldd	r31, Y+4	; 0x04
    4fe4:	dc 01       	movw	r26, r24
    4fe6:	aa 0f       	add	r26, r26
    4fe8:	bb 1f       	adc	r27, r27
    4fea:	ae 52       	subi	r26, 0x2E	; 46
    4fec:	ba 4f       	sbci	r27, 0xFA	; 250
    4fee:	2d 91       	ld	r18, X+
    4ff0:	3c 91       	ld	r19, X
    4ff2:	31 83       	std	Z+1, r19	; 0x01
    4ff4:	20 83       	st	Z, r18
    4ff6:	12 82       	std	Z+2, r1	; 0x02
    4ff8:	13 82       	std	Z+3, r1	; 0x03
    4ffa:	14 82       	std	Z+4, r1	; 0x04
    4ffc:	15 82       	std	Z+5, r1	; 0x05
    4ffe:	69 85       	ldd	r22, Y+9	; 0x09
    5000:	62 60       	ori	r22, 0x02	; 2
    5002:	69 87       	std	Y+9, r22	; 0x09
    5004:	dc 01       	movw	r26, r24
    5006:	aa 0f       	add	r26, r26
    5008:	bb 1f       	adc	r27, r27
    500a:	aa 0f       	add	r26, r26
    500c:	bb 1f       	adc	r27, r27
    500e:	aa 0f       	add	r26, r26
    5010:	bb 1f       	adc	r27, r27
    5012:	a2 54       	subi	r26, 0x42	; 66
    5014:	be 4f       	sbci	r27, 0xFE	; 254
    5016:	16 96       	adiw	r26, 0x06	; 6
    5018:	8d 91       	ld	r24, X+
    501a:	9c 91       	ld	r25, X
    501c:	17 97       	sbiw	r26, 0x07	; 7
    501e:	00 97       	sbiw	r24, 0x00	; 0
    5020:	09 f0       	breq	.+2      	; 0x5024 <tickefx+0x4ea>
    5022:	28 c1       	rjmp	.+592    	; 0x5274 <tickefx+0x73a>
    5024:	2d 91       	ld	r18, X+
    5026:	3c 91       	ld	r19, X
    5028:	40 e0       	ldi	r20, 0x00	; 0
    502a:	50 e0       	ldi	r21, 0x00	; 0
    502c:	79 e0       	ldi	r23, 0x09	; 9
    502e:	22 0f       	add	r18, r18
    5030:	33 1f       	adc	r19, r19
    5032:	44 1f       	adc	r20, r20
    5034:	55 1f       	adc	r21, r21
    5036:	7a 95       	dec	r23
    5038:	d1 f7       	brne	.-12     	; 0x502e <tickefx+0x4f4>
    503a:	22 87       	std	Z+10, r18	; 0x0a
    503c:	33 87       	std	Z+11, r19	; 0x0b
    503e:	44 87       	std	Z+12, r20	; 0x0c
    5040:	55 87       	std	Z+13, r21	; 0x0d
    5042:	aa 27       	eor	r26, r26
    5044:	97 fd       	sbrc	r25, 7
    5046:	a0 95       	com	r26
    5048:	ba 2f       	mov	r27, r26
    504a:	49 e0       	ldi	r20, 0x09	; 9
    504c:	88 0f       	add	r24, r24
    504e:	99 1f       	adc	r25, r25
    5050:	aa 1f       	adc	r26, r26
    5052:	bb 1f       	adc	r27, r27
    5054:	4a 95       	dec	r20
    5056:	d1 f7       	brne	.-12     	; 0x504c <tickefx+0x512>
    5058:	86 87       	std	Z+14, r24	; 0x0e
    505a:	97 87       	std	Z+15, r25	; 0x0f
    505c:	a0 8b       	std	Z+16, r26	; 0x10
    505e:	b1 8b       	std	Z+17, r27	; 0x11
    5060:	96 2f       	mov	r25, r22
    5062:	bf ce       	rjmp	.-642    	; 0x4de2 <tickefx+0x2a8>
    5064:	a9 81       	ldd	r26, Y+1	; 0x01
    5066:	ba 81       	ldd	r27, Y+2	; 0x02
    5068:	8c 91       	ld	r24, X
    506a:	8f 3f       	cpi	r24, 0xFF	; 255
    506c:	09 f4       	brne	.+2      	; 0x5070 <tickefx+0x536>
    506e:	5c ce       	rjmp	.-840    	; 0x4d28 <tickefx+0x1ee>
    5070:	90 e0       	ldi	r25, 0x00	; 0
    5072:	13 96       	adiw	r26, 0x03	; 3
    5074:	ec 91       	ld	r30, X
    5076:	13 97       	sbiw	r26, 0x03	; 3
    5078:	f0 e0       	ldi	r31, 0x00	; 0
    507a:	ee 0f       	add	r30, r30
    507c:	ff 1f       	adc	r31, r31
    507e:	ee 5b       	subi	r30, 0xBE	; 190
    5080:	fe 4f       	sbci	r31, 0xFE	; 254
    5082:	20 81       	ld	r18, Z
    5084:	31 81       	ldd	r19, Z+1	; 0x01
    5086:	17 96       	adiw	r26, 0x07	; 7
    5088:	3c 93       	st	X, r19
    508a:	2e 93       	st	-X, r18
    508c:	16 97       	sbiw	r26, 0x06	; 6
    508e:	e3 e0       	ldi	r30, 0x03	; 3
    5090:	29 35       	cpi	r18, 0x59	; 89
    5092:	3e 07       	cpc	r19, r30
    5094:	30 f0       	brcs	.+12     	; 0x50a2 <tickefx+0x568>
    5096:	28 e5       	ldi	r18, 0x58	; 88
    5098:	33 e0       	ldi	r19, 0x03	; 3
    509a:	17 96       	adiw	r26, 0x07	; 7
    509c:	3c 93       	st	X, r19
    509e:	2e 93       	st	-X, r18
    50a0:	16 97       	sbiw	r26, 0x06	; 6
    50a2:	eb 81       	ldd	r30, Y+3	; 0x03
    50a4:	fc 81       	ldd	r31, Y+4	; 0x04
    50a6:	dc 01       	movw	r26, r24
    50a8:	aa 0f       	add	r26, r26
    50aa:	bb 1f       	adc	r27, r27
    50ac:	ae 52       	subi	r26, 0x2E	; 46
    50ae:	ba 4f       	sbci	r27, 0xFA	; 250
    50b0:	2d 91       	ld	r18, X+
    50b2:	3c 91       	ld	r19, X
    50b4:	31 83       	std	Z+1, r19	; 0x01
    50b6:	20 83       	st	Z, r18
    50b8:	12 82       	std	Z+2, r1	; 0x02
    50ba:	13 82       	std	Z+3, r1	; 0x03
    50bc:	14 82       	std	Z+4, r1	; 0x04
    50be:	15 82       	std	Z+5, r1	; 0x05
    50c0:	69 85       	ldd	r22, Y+9	; 0x09
    50c2:	62 60       	ori	r22, 0x02	; 2
    50c4:	69 87       	std	Y+9, r22	; 0x09
    50c6:	dc 01       	movw	r26, r24
    50c8:	aa 0f       	add	r26, r26
    50ca:	bb 1f       	adc	r27, r27
    50cc:	aa 0f       	add	r26, r26
    50ce:	bb 1f       	adc	r27, r27
    50d0:	aa 0f       	add	r26, r26
    50d2:	bb 1f       	adc	r27, r27
    50d4:	a2 54       	subi	r26, 0x42	; 66
    50d6:	be 4f       	sbci	r27, 0xFE	; 254
    50d8:	16 96       	adiw	r26, 0x06	; 6
    50da:	8d 91       	ld	r24, X+
    50dc:	9c 91       	ld	r25, X
    50de:	17 97       	sbiw	r26, 0x07	; 7
    50e0:	00 97       	sbiw	r24, 0x00	; 0
    50e2:	09 f0       	breq	.+2      	; 0x50e6 <tickefx+0x5ac>
    50e4:	b5 c0       	rjmp	.+362    	; 0x5250 <tickefx+0x716>
    50e6:	2d 91       	ld	r18, X+
    50e8:	3c 91       	ld	r19, X
    50ea:	40 e0       	ldi	r20, 0x00	; 0
    50ec:	50 e0       	ldi	r21, 0x00	; 0
    50ee:	a9 e0       	ldi	r26, 0x09	; 9
    50f0:	22 0f       	add	r18, r18
    50f2:	33 1f       	adc	r19, r19
    50f4:	44 1f       	adc	r20, r20
    50f6:	55 1f       	adc	r21, r21
    50f8:	aa 95       	dec	r26
    50fa:	d1 f7       	brne	.-12     	; 0x50f0 <tickefx+0x5b6>
    50fc:	22 87       	std	Z+10, r18	; 0x0a
    50fe:	33 87       	std	Z+11, r19	; 0x0b
    5100:	44 87       	std	Z+12, r20	; 0x0c
    5102:	55 87       	std	Z+13, r21	; 0x0d
    5104:	aa 27       	eor	r26, r26
    5106:	97 fd       	sbrc	r25, 7
    5108:	a0 95       	com	r26
    510a:	ba 2f       	mov	r27, r26
    510c:	29 e0       	ldi	r18, 0x09	; 9
    510e:	88 0f       	add	r24, r24
    5110:	99 1f       	adc	r25, r25
    5112:	aa 1f       	adc	r26, r26
    5114:	bb 1f       	adc	r27, r27
    5116:	2a 95       	dec	r18
    5118:	d1 f7       	brne	.-12     	; 0x510e <tickefx+0x5d4>
    511a:	86 87       	std	Z+14, r24	; 0x0e
    511c:	97 87       	std	Z+15, r25	; 0x0f
    511e:	a0 8b       	std	Z+16, r26	; 0x10
    5120:	b1 8b       	std	Z+17, r27	; 0x11
    5122:	96 2f       	mov	r25, r22
    5124:	01 ce       	rjmp	.-1022   	; 0x4d28 <tickefx+0x1ee>
    5126:	a9 81       	ldd	r26, Y+1	; 0x01
    5128:	ba 81       	ldd	r27, Y+2	; 0x02
    512a:	8c 91       	ld	r24, X
    512c:	8f 3f       	cpi	r24, 0xFF	; 255
    512e:	09 f4       	brne	.+2      	; 0x5132 <tickefx+0x5f8>
    5130:	9e cd       	rjmp	.-1220   	; 0x4c6e <tickefx+0x134>
    5132:	90 e0       	ldi	r25, 0x00	; 0
    5134:	13 96       	adiw	r26, 0x03	; 3
    5136:	ec 91       	ld	r30, X
    5138:	13 97       	sbiw	r26, 0x03	; 3
    513a:	f0 e0       	ldi	r31, 0x00	; 0
    513c:	ee 0f       	add	r30, r30
    513e:	ff 1f       	adc	r31, r31
    5140:	ee 5b       	subi	r30, 0xBE	; 190
    5142:	fe 4f       	sbci	r31, 0xFE	; 254
    5144:	20 81       	ld	r18, Z
    5146:	31 81       	ldd	r19, Z+1	; 0x01
    5148:	17 96       	adiw	r26, 0x07	; 7
    514a:	3c 93       	st	X, r19
    514c:	2e 93       	st	-X, r18
    514e:	16 97       	sbiw	r26, 0x06	; 6
    5150:	e3 e0       	ldi	r30, 0x03	; 3
    5152:	29 35       	cpi	r18, 0x59	; 89
    5154:	3e 07       	cpc	r19, r30
    5156:	30 f0       	brcs	.+12     	; 0x5164 <tickefx+0x62a>
    5158:	28 e5       	ldi	r18, 0x58	; 88
    515a:	33 e0       	ldi	r19, 0x03	; 3
    515c:	17 96       	adiw	r26, 0x07	; 7
    515e:	3c 93       	st	X, r19
    5160:	2e 93       	st	-X, r18
    5162:	16 97       	sbiw	r26, 0x06	; 6
    5164:	eb 81       	ldd	r30, Y+3	; 0x03
    5166:	fc 81       	ldd	r31, Y+4	; 0x04
    5168:	dc 01       	movw	r26, r24
    516a:	aa 0f       	add	r26, r26
    516c:	bb 1f       	adc	r27, r27
    516e:	ae 52       	subi	r26, 0x2E	; 46
    5170:	ba 4f       	sbci	r27, 0xFA	; 250
    5172:	2d 91       	ld	r18, X+
    5174:	3c 91       	ld	r19, X
    5176:	31 83       	std	Z+1, r19	; 0x01
    5178:	20 83       	st	Z, r18
    517a:	12 82       	std	Z+2, r1	; 0x02
    517c:	13 82       	std	Z+3, r1	; 0x03
    517e:	14 82       	std	Z+4, r1	; 0x04
    5180:	15 82       	std	Z+5, r1	; 0x05
    5182:	69 85       	ldd	r22, Y+9	; 0x09
    5184:	62 60       	ori	r22, 0x02	; 2
    5186:	69 87       	std	Y+9, r22	; 0x09
    5188:	dc 01       	movw	r26, r24
    518a:	aa 0f       	add	r26, r26
    518c:	bb 1f       	adc	r27, r27
    518e:	aa 0f       	add	r26, r26
    5190:	bb 1f       	adc	r27, r27
    5192:	aa 0f       	add	r26, r26
    5194:	bb 1f       	adc	r27, r27
    5196:	a2 54       	subi	r26, 0x42	; 66
    5198:	be 4f       	sbci	r27, 0xFE	; 254
    519a:	16 96       	adiw	r26, 0x06	; 6
    519c:	8d 91       	ld	r24, X+
    519e:	9c 91       	ld	r25, X
    51a0:	17 97       	sbiw	r26, 0x07	; 7
    51a2:	00 97       	sbiw	r24, 0x00	; 0
    51a4:	09 f0       	breq	.+2      	; 0x51a8 <tickefx+0x66e>
    51a6:	42 c0       	rjmp	.+132    	; 0x522c <tickefx+0x6f2>
    51a8:	2d 91       	ld	r18, X+
    51aa:	3c 91       	ld	r19, X
    51ac:	40 e0       	ldi	r20, 0x00	; 0
    51ae:	50 e0       	ldi	r21, 0x00	; 0
    51b0:	a9 e0       	ldi	r26, 0x09	; 9
    51b2:	22 0f       	add	r18, r18
    51b4:	33 1f       	adc	r19, r19
    51b6:	44 1f       	adc	r20, r20
    51b8:	55 1f       	adc	r21, r21
    51ba:	aa 95       	dec	r26
    51bc:	d1 f7       	brne	.-12     	; 0x51b2 <tickefx+0x678>
    51be:	22 87       	std	Z+10, r18	; 0x0a
    51c0:	33 87       	std	Z+11, r19	; 0x0b
    51c2:	44 87       	std	Z+12, r20	; 0x0c
    51c4:	55 87       	std	Z+13, r21	; 0x0d
    51c6:	aa 27       	eor	r26, r26
    51c8:	97 fd       	sbrc	r25, 7
    51ca:	a0 95       	com	r26
    51cc:	ba 2f       	mov	r27, r26
    51ce:	29 e0       	ldi	r18, 0x09	; 9
    51d0:	88 0f       	add	r24, r24
    51d2:	99 1f       	adc	r25, r25
    51d4:	aa 1f       	adc	r26, r26
    51d6:	bb 1f       	adc	r27, r27
    51d8:	2a 95       	dec	r18
    51da:	d1 f7       	brne	.-12     	; 0x51d0 <tickefx+0x696>
    51dc:	86 87       	std	Z+14, r24	; 0x0e
    51de:	97 87       	std	Z+15, r25	; 0x0f
    51e0:	a0 8b       	std	Z+16, r26	; 0x10
    51e2:	b1 8b       	std	Z+17, r27	; 0x11
    51e4:	96 2f       	mov	r25, r22
    51e6:	43 cd       	rjmp	.-1402   	; 0x4c6e <tickefx+0x134>
    51e8:	21 37       	cpi	r18, 0x71	; 113
    51ea:	31 05       	cpc	r19, r1
    51ec:	0c f0       	brlt	.+2      	; 0x51f0 <tickefx+0x6b6>
    51ee:	6f c0       	rjmp	.+222    	; 0x52ce <tickefx+0x794>
    51f0:	21 e7       	ldi	r18, 0x71	; 113
    51f2:	30 e0       	ldi	r19, 0x00	; 0
    51f4:	40 e0       	ldi	r20, 0x00	; 0
    51f6:	50 e0       	ldi	r21, 0x00	; 0
    51f8:	4c ce       	rjmp	.-872    	; 0x4e92 <tickefx+0x358>
    51fa:	28 e5       	ldi	r18, 0x58	; 88
    51fc:	33 e0       	ldi	r19, 0x03	; 3
    51fe:	40 e0       	ldi	r20, 0x00	; 0
    5200:	50 e0       	ldi	r21, 0x00	; 0
    5202:	14 8a       	std	Z+20, r1	; 0x14
    5204:	13 8a       	std	Z+19, r1	; 0x13
    5206:	0e ce       	rjmp	.-996    	; 0x4e24 <tickefx+0x2ea>
    5208:	21 37       	cpi	r18, 0x71	; 113
    520a:	31 05       	cpc	r19, r1
    520c:	0c f0       	brlt	.+2      	; 0x5210 <tickefx+0x6d6>
    520e:	5c c0       	rjmp	.+184    	; 0x52c8 <tickefx+0x78e>
    5210:	21 e7       	ldi	r18, 0x71	; 113
    5212:	30 e0       	ldi	r19, 0x00	; 0
    5214:	40 e0       	ldi	r20, 0x00	; 0
    5216:	50 e0       	ldi	r21, 0x00	; 0
    5218:	4a ce       	rjmp	.-876    	; 0x4eae <tickefx+0x374>
    521a:	21 37       	cpi	r18, 0x71	; 113
    521c:	31 05       	cpc	r19, r1
    521e:	0c f0       	brlt	.+2      	; 0x5222 <tickefx+0x6e8>
    5220:	50 c0       	rjmp	.+160    	; 0x52c2 <tickefx+0x788>
    5222:	21 e7       	ldi	r18, 0x71	; 113
    5224:	30 e0       	ldi	r19, 0x00	; 0
    5226:	40 e0       	ldi	r20, 0x00	; 0
    5228:	50 e0       	ldi	r21, 0x00	; 0
    522a:	4f ce       	rjmp	.-866    	; 0x4eca <tickefx+0x390>
    522c:	14 96       	adiw	r26, 0x04	; 4
    522e:	2d 91       	ld	r18, X+
    5230:	3c 91       	ld	r19, X
    5232:	15 97       	sbiw	r26, 0x05	; 5
    5234:	28 0f       	add	r18, r24
    5236:	39 1f       	adc	r19, r25
    5238:	44 27       	eor	r20, r20
    523a:	37 fd       	sbrc	r19, 7
    523c:	40 95       	com	r20
    523e:	54 2f       	mov	r21, r20
    5240:	79 e0       	ldi	r23, 0x09	; 9
    5242:	22 0f       	add	r18, r18
    5244:	33 1f       	adc	r19, r19
    5246:	44 1f       	adc	r20, r20
    5248:	55 1f       	adc	r21, r21
    524a:	7a 95       	dec	r23
    524c:	d1 f7       	brne	.-12     	; 0x5242 <tickefx+0x708>
    524e:	b7 cf       	rjmp	.-146    	; 0x51be <tickefx+0x684>
    5250:	14 96       	adiw	r26, 0x04	; 4
    5252:	2d 91       	ld	r18, X+
    5254:	3c 91       	ld	r19, X
    5256:	15 97       	sbiw	r26, 0x05	; 5
    5258:	28 0f       	add	r18, r24
    525a:	39 1f       	adc	r19, r25
    525c:	44 27       	eor	r20, r20
    525e:	37 fd       	sbrc	r19, 7
    5260:	40 95       	com	r20
    5262:	54 2f       	mov	r21, r20
    5264:	79 e0       	ldi	r23, 0x09	; 9
    5266:	22 0f       	add	r18, r18
    5268:	33 1f       	adc	r19, r19
    526a:	44 1f       	adc	r20, r20
    526c:	55 1f       	adc	r21, r21
    526e:	7a 95       	dec	r23
    5270:	d1 f7       	brne	.-12     	; 0x5266 <tickefx+0x72c>
    5272:	44 cf       	rjmp	.-376    	; 0x50fc <tickefx+0x5c2>
    5274:	14 96       	adiw	r26, 0x04	; 4
    5276:	2d 91       	ld	r18, X+
    5278:	3c 91       	ld	r19, X
    527a:	15 97       	sbiw	r26, 0x05	; 5
    527c:	28 0f       	add	r18, r24
    527e:	39 1f       	adc	r19, r25
    5280:	44 27       	eor	r20, r20
    5282:	37 fd       	sbrc	r19, 7
    5284:	40 95       	com	r20
    5286:	54 2f       	mov	r21, r20
    5288:	a9 e0       	ldi	r26, 0x09	; 9
    528a:	22 0f       	add	r18, r18
    528c:	33 1f       	adc	r19, r19
    528e:	44 1f       	adc	r20, r20
    5290:	55 1f       	adc	r21, r21
    5292:	aa 95       	dec	r26
    5294:	d1 f7       	brne	.-12     	; 0x528a <tickefx+0x750>
    5296:	d1 ce       	rjmp	.-606    	; 0x503a <tickefx+0x500>
    5298:	14 96       	adiw	r26, 0x04	; 4
    529a:	2d 91       	ld	r18, X+
    529c:	3c 91       	ld	r19, X
    529e:	15 97       	sbiw	r26, 0x05	; 5
    52a0:	28 0f       	add	r18, r24
    52a2:	39 1f       	adc	r19, r25
    52a4:	44 27       	eor	r20, r20
    52a6:	37 fd       	sbrc	r19, 7
    52a8:	40 95       	com	r20
    52aa:	54 2f       	mov	r21, r20
    52ac:	79 e0       	ldi	r23, 0x09	; 9
    52ae:	22 0f       	add	r18, r18
    52b0:	33 1f       	adc	r19, r19
    52b2:	44 1f       	adc	r20, r20
    52b4:	55 1f       	adc	r21, r21
    52b6:	7a 95       	dec	r23
    52b8:	d1 f7       	brne	.-12     	; 0x52ae <tickefx+0x774>
    52ba:	5e ce       	rjmp	.-836    	; 0x4f78 <tickefx+0x43e>
    52bc:	40 e0       	ldi	r20, 0x00	; 0
    52be:	50 e0       	ldi	r21, 0x00	; 0
    52c0:	a0 cf       	rjmp	.-192    	; 0x5202 <tickefx+0x6c8>
    52c2:	40 e0       	ldi	r20, 0x00	; 0
    52c4:	50 e0       	ldi	r21, 0x00	; 0
    52c6:	01 ce       	rjmp	.-1022   	; 0x4eca <tickefx+0x390>
    52c8:	40 e0       	ldi	r20, 0x00	; 0
    52ca:	50 e0       	ldi	r21, 0x00	; 0
    52cc:	f0 cd       	rjmp	.-1056   	; 0x4eae <tickefx+0x374>
    52ce:	40 e0       	ldi	r20, 0x00	; 0
    52d0:	50 e0       	ldi	r21, 0x00	; 0
    52d2:	df cd       	rjmp	.-1090   	; 0x4e92 <tickefx+0x358>

000052d4 <seek>:
    52d4:	80 93 cd 02 	sts	0x02CD, r24
    52d8:	90 91 c1 02 	lds	r25, 0x02C1
    52dc:	89 17       	cp	r24, r25
    52de:	c0 f5       	brcc	.+112    	; 0x5350 <seek+0x7c>
    52e0:	98 2f       	mov	r25, r24
    52e2:	9f 5f       	subi	r25, 0xFF	; 255
    52e4:	e8 2f       	mov	r30, r24
    52e6:	f0 e0       	ldi	r31, 0x00	; 0
    52e8:	60 93 80 05 	sts	0x0580, r22
    52ec:	60 34       	cpi	r22, 0x40	; 64
    52ee:	1c f0       	brlt	.+6      	; 0x52f6 <seek+0x22>
    52f0:	10 92 80 05 	sts	0x0580, r1
    52f4:	60 e0       	ldi	r22, 0x00	; 0
    52f6:	90 93 b6 02 	sts	0x02B6, r25
    52fa:	10 92 b9 02 	sts	0x02B9, r1
    52fe:	10 92 83 05 	sts	0x0583, r1
    5302:	e0 5c       	subi	r30, 0xC0	; 192
    5304:	fc 4f       	sbci	r31, 0xFC	; 252
    5306:	40 81       	ld	r20, Z
    5308:	80 91 c4 02 	lds	r24, 0x02C4
    530c:	48 17       	cp	r20, r24
    530e:	f0 f4       	brcc	.+60     	; 0x534c <seek+0x78>
    5310:	40 93 85 05 	sts	0x0585, r20
    5314:	50 e0       	ldi	r21, 0x00	; 0
    5316:	20 e0       	ldi	r18, 0x00	; 0
    5318:	33 e0       	ldi	r19, 0x03	; 3
    531a:	42 9f       	mul	r20, r18
    531c:	c0 01       	movw	r24, r0
    531e:	43 9f       	mul	r20, r19
    5320:	90 0d       	add	r25, r0
    5322:	52 9f       	mul	r21, r18
    5324:	90 0d       	add	r25, r0
    5326:	11 24       	eor	r1, r1
    5328:	20 91 c5 02 	lds	r18, 0x02C5
    532c:	30 91 c6 02 	lds	r19, 0x02C6
    5330:	82 0f       	add	r24, r18
    5332:	93 1f       	adc	r25, r19
    5334:	90 93 87 05 	sts	0x0587, r25
    5338:	80 93 86 05 	sts	0x0586, r24
    533c:	8c e0       	ldi	r24, 0x0C	; 12
    533e:	68 9f       	mul	r22, r24
    5340:	b0 01       	movw	r22, r0
    5342:	11 24       	eor	r1, r1
    5344:	70 93 89 05 	sts	0x0589, r23
    5348:	60 93 88 05 	sts	0x0588, r22
    534c:	81 e0       	ldi	r24, 0x01	; 1
    534e:	08 95       	ret
    5350:	10 92 cd 02 	sts	0x02CD, r1
    5354:	e0 e0       	ldi	r30, 0x00	; 0
    5356:	f0 e0       	ldi	r31, 0x00	; 0
    5358:	91 e0       	ldi	r25, 0x01	; 1
    535a:	c6 cf       	rjmp	.-116    	; 0x52e8 <seek+0x14>

0000535c <tick>:
    535c:	80 91 bc 02 	lds	r24, 0x02BC
    5360:	8f 5f       	subi	r24, 0xFF	; 255
    5362:	80 93 bc 02 	sts	0x02BC, r24
    5366:	90 91 84 05 	lds	r25, 0x0584
    536a:	89 17       	cp	r24, r25
    536c:	08 f4       	brcc	.+2      	; 0x5370 <tick+0x14>
    536e:	4d c0       	rjmp	.+154    	; 0x540a <tick+0xae>
    5370:	10 92 bc 02 	sts	0x02BC, r1
    5374:	80 91 80 05 	lds	r24, 0x0580
    5378:	98 2f       	mov	r25, r24
    537a:	9f 5f       	subi	r25, 0xFF	; 255
    537c:	90 93 80 05 	sts	0x0580, r25
    5380:	80 34       	cpi	r24, 0x40	; 64
    5382:	0c f4       	brge	.+2      	; 0x5386 <tick+0x2a>
    5384:	3f c0       	rjmp	.+126    	; 0x5404 <tick+0xa8>
    5386:	e0 91 b6 02 	lds	r30, 0x02B6
    538a:	80 91 b9 02 	lds	r24, 0x02B9
    538e:	e0 93 cd 02 	sts	0x02CD, r30
    5392:	90 91 c1 02 	lds	r25, 0x02C1
    5396:	e9 17       	cp	r30, r25
    5398:	f0 f5       	brcc	.+124    	; 0x5416 <tick+0xba>
    539a:	9e 2f       	mov	r25, r30
    539c:	9f 5f       	subi	r25, 0xFF	; 255
    539e:	f0 e0       	ldi	r31, 0x00	; 0
    53a0:	80 34       	cpi	r24, 0x40	; 64
    53a2:	b4 f5       	brge	.+108    	; 0x5410 <tick+0xb4>
    53a4:	68 2f       	mov	r22, r24
    53a6:	6f 5f       	subi	r22, 0xFF	; 255
    53a8:	78 2f       	mov	r23, r24
    53aa:	90 93 b6 02 	sts	0x02B6, r25
    53ae:	10 92 b9 02 	sts	0x02B9, r1
    53b2:	10 92 83 05 	sts	0x0583, r1
    53b6:	e0 5c       	subi	r30, 0xC0	; 192
    53b8:	fc 4f       	sbci	r31, 0xFC	; 252
    53ba:	40 81       	ld	r20, Z
    53bc:	90 91 c4 02 	lds	r25, 0x02C4
    53c0:	49 17       	cp	r20, r25
    53c2:	f0 f4       	brcc	.+60     	; 0x5400 <tick+0xa4>
    53c4:	40 93 85 05 	sts	0x0585, r20
    53c8:	50 e0       	ldi	r21, 0x00	; 0
    53ca:	20 e0       	ldi	r18, 0x00	; 0
    53cc:	33 e0       	ldi	r19, 0x03	; 3
    53ce:	42 9f       	mul	r20, r18
    53d0:	c0 01       	movw	r24, r0
    53d2:	43 9f       	mul	r20, r19
    53d4:	90 0d       	add	r25, r0
    53d6:	52 9f       	mul	r21, r18
    53d8:	90 0d       	add	r25, r0
    53da:	11 24       	eor	r1, r1
    53dc:	20 91 c5 02 	lds	r18, 0x02C5
    53e0:	30 91 c6 02 	lds	r19, 0x02C6
    53e4:	82 0f       	add	r24, r18
    53e6:	93 1f       	adc	r25, r19
    53e8:	90 93 87 05 	sts	0x0587, r25
    53ec:	80 93 86 05 	sts	0x0586, r24
    53f0:	8c e0       	ldi	r24, 0x0C	; 12
    53f2:	78 9f       	mul	r23, r24
    53f4:	c0 01       	movw	r24, r0
    53f6:	11 24       	eor	r1, r1
    53f8:	90 93 89 05 	sts	0x0589, r25
    53fc:	80 93 88 05 	sts	0x0588, r24
    5400:	60 93 80 05 	sts	0x0580, r22
    5404:	0e 94 3a 20 	call	0x4074	; 0x4074 <row>
    5408:	08 95       	ret
    540a:	0e 94 9d 25 	call	0x4b3a	; 0x4b3a <tickefx>
    540e:	08 95       	ret
    5410:	70 e0       	ldi	r23, 0x00	; 0
    5412:	61 e0       	ldi	r22, 0x01	; 1
    5414:	ca cf       	rjmp	.-108    	; 0x53aa <tick+0x4e>
    5416:	10 92 cd 02 	sts	0x02CD, r1
    541a:	e0 e0       	ldi	r30, 0x00	; 0
    541c:	f0 e0       	ldi	r31, 0x00	; 0
    541e:	91 e0       	ldi	r25, 0x01	; 1
    5420:	bf cf       	rjmp	.-130    	; 0x53a0 <tick+0x44>

00005422 <efx1_row>:
    5422:	08 95       	ret

00005424 <efx2_row>:
    5424:	08 95       	ret

00005426 <efx5_row>:
    5426:	08 95       	ret

00005428 <efx6_row>:
    5428:	08 95       	ret

0000542a <efx7_row>:
    542a:	08 95       	ret

0000542c <efx9_row>:
    542c:	08 95       	ret

0000542e <efxA_row>:
    542e:	08 95       	ret

00005430 <portanote>:
    5430:	dc 01       	movw	r26, r24
    5432:	ed 91       	ld	r30, X+
    5434:	fc 91       	ld	r31, X
    5436:	11 97       	sbiw	r26, 0x01	; 1
    5438:	26 81       	ldd	r18, Z+6	; 0x06
    543a:	37 81       	ldd	r19, Z+7	; 0x07
    543c:	83 85       	ldd	r24, Z+11	; 0x0b
    543e:	94 85       	ldd	r25, Z+12	; 0x0c
    5440:	28 17       	cp	r18, r24
    5442:	39 07       	cpc	r19, r25
    5444:	c0 f4       	brcc	.+48     	; 0x5476 <portanote+0x46>
    5446:	42 85       	ldd	r20, Z+10	; 0x0a
    5448:	24 0f       	add	r18, r20
    544a:	31 1d       	adc	r19, r1
    544c:	43 e0       	ldi	r20, 0x03	; 3
    544e:	29 35       	cpi	r18, 0x59	; 89
    5450:	34 07       	cpc	r19, r20
    5452:	6c f1       	brlt	.+90     	; 0x54ae <portanote+0x7e>
    5454:	28 e5       	ldi	r18, 0x58	; 88
    5456:	33 e0       	ldi	r19, 0x03	; 3
    5458:	37 83       	std	Z+7, r19	; 0x07
    545a:	26 83       	std	Z+6, r18	; 0x06
    545c:	82 17       	cp	r24, r18
    545e:	93 07       	cpc	r25, r19
    5460:	10 f4       	brcc	.+4      	; 0x5466 <portanote+0x36>
    5462:	97 83       	std	Z+7, r25	; 0x07
    5464:	86 83       	std	Z+6, r24	; 0x06
    5466:	18 96       	adiw	r26, 0x08	; 8
    5468:	8c 91       	ld	r24, X
    546a:	18 97       	sbiw	r26, 0x08	; 8
    546c:	82 60       	ori	r24, 0x02	; 2
    546e:	18 96       	adiw	r26, 0x08	; 8
    5470:	8c 93       	st	X, r24
    5472:	18 97       	sbiw	r26, 0x08	; 8
    5474:	08 95       	ret
    5476:	82 17       	cp	r24, r18
    5478:	93 07       	cpc	r25, r19
    547a:	a8 f7       	brcc	.-22     	; 0x5466 <portanote+0x36>
    547c:	42 85       	ldd	r20, Z+10	; 0x0a
    547e:	24 1b       	sub	r18, r20
    5480:	31 09       	sbc	r19, r1
    5482:	43 e0       	ldi	r20, 0x03	; 3
    5484:	29 35       	cpi	r18, 0x59	; 89
    5486:	34 07       	cpc	r19, r20
    5488:	c4 f4       	brge	.+48     	; 0x54ba <portanote+0x8a>
    548a:	21 37       	cpi	r18, 0x71	; 113
    548c:	31 05       	cpc	r19, r1
    548e:	14 f4       	brge	.+4      	; 0x5494 <portanote+0x64>
    5490:	21 e7       	ldi	r18, 0x71	; 113
    5492:	30 e0       	ldi	r19, 0x00	; 0
    5494:	37 83       	std	Z+7, r19	; 0x07
    5496:	26 83       	std	Z+6, r18	; 0x06
    5498:	28 17       	cp	r18, r24
    549a:	39 07       	cpc	r19, r25
    549c:	10 f3       	brcs	.-60     	; 0x5462 <portanote+0x32>
    549e:	18 96       	adiw	r26, 0x08	; 8
    54a0:	8c 91       	ld	r24, X
    54a2:	18 97       	sbiw	r26, 0x08	; 8
    54a4:	82 60       	ori	r24, 0x02	; 2
    54a6:	18 96       	adiw	r26, 0x08	; 8
    54a8:	8c 93       	st	X, r24
    54aa:	18 97       	sbiw	r26, 0x08	; 8
    54ac:	08 95       	ret
    54ae:	21 37       	cpi	r18, 0x71	; 113
    54b0:	31 05       	cpc	r19, r1
    54b2:	94 f6       	brge	.-92     	; 0x5458 <portanote+0x28>
    54b4:	21 e7       	ldi	r18, 0x71	; 113
    54b6:	30 e0       	ldi	r19, 0x00	; 0
    54b8:	cf cf       	rjmp	.-98     	; 0x5458 <portanote+0x28>
    54ba:	28 e5       	ldi	r18, 0x58	; 88
    54bc:	33 e0       	ldi	r19, 0x03	; 3
    54be:	ea cf       	rjmp	.-44     	; 0x5494 <portanote+0x64>

000054c0 <efx3_tick>:
    54c0:	0e 94 18 2a 	call	0x5430	; 0x5430 <portanote>
    54c4:	08 95       	ret

000054c6 <efx5_tick>:
    54c6:	cf 93       	push	r28
    54c8:	df 93       	push	r29
    54ca:	ec 01       	movw	r28, r24
    54cc:	0e 94 18 2a 	call	0x5430	; 0x5430 <portanote>
    54d0:	e8 81       	ld	r30, Y
    54d2:	f9 81       	ldd	r31, Y+1	; 0x01
    54d4:	85 81       	ldd	r24, Z+5	; 0x05
    54d6:	98 2f       	mov	r25, r24
    54d8:	92 95       	swap	r25
    54da:	9f 70       	andi	r25, 0x0F	; 15
    54dc:	8f 70       	andi	r24, 0x0F	; 15
    54de:	99 23       	and	r25, r25
    54e0:	59 f4       	brne	.+22     	; 0x54f8 <efx5_tick+0x32>
    54e2:	91 81       	ldd	r25, Z+1	; 0x01
    54e4:	98 1b       	sub	r25, r24
    54e6:	91 83       	std	Z+1, r25	; 0x01
    54e8:	97 fd       	sbrc	r25, 7
    54ea:	12 c0       	rjmp	.+36     	; 0x5510 <efx5_tick+0x4a>
    54ec:	88 85       	ldd	r24, Y+8	; 0x08
    54ee:	81 60       	ori	r24, 0x01	; 1
    54f0:	88 87       	std	Y+8, r24	; 0x08
    54f2:	df 91       	pop	r29
    54f4:	cf 91       	pop	r28
    54f6:	08 95       	ret
    54f8:	88 23       	and	r24, r24
    54fa:	d9 f7       	brne	.-10     	; 0x54f2 <efx5_tick+0x2c>
    54fc:	81 81       	ldd	r24, Z+1	; 0x01
    54fe:	89 0f       	add	r24, r25
    5500:	81 83       	std	Z+1, r24	; 0x01
    5502:	80 34       	cpi	r24, 0x40	; 64
    5504:	9c f3       	brlt	.-26     	; 0x54ec <efx5_tick+0x26>
    5506:	e8 81       	ld	r30, Y
    5508:	f9 81       	ldd	r31, Y+1	; 0x01
    550a:	8f e3       	ldi	r24, 0x3F	; 63
    550c:	81 83       	std	Z+1, r24	; 0x01
    550e:	ee cf       	rjmp	.-36     	; 0x54ec <efx5_tick+0x26>
    5510:	e8 81       	ld	r30, Y
    5512:	f9 81       	ldd	r31, Y+1	; 0x01
    5514:	11 82       	std	Z+1, r1	; 0x01
    5516:	ea cf       	rjmp	.-44     	; 0x54ec <efx5_tick+0x26>

00005518 <vibrato>:
    5518:	cf 93       	push	r28
    551a:	df 93       	push	r29
    551c:	dc 01       	movw	r26, r24
    551e:	ed 91       	ld	r30, X+
    5520:	fc 91       	ld	r31, X
    5522:	11 97       	sbiw	r26, 0x01	; 1
    5524:	22 89       	ldd	r18, Z+18	; 0x12
    5526:	20 32       	cpi	r18, 0x20	; 32
    5528:	34 f0       	brlt	.+12     	; 0x5536 <vibrato+0x1e>
    552a:	2f 53       	subi	r18, 0x3F	; 63
    552c:	22 8b       	std	Z+18, r18	; 0x12
    552e:	ed 91       	ld	r30, X+
    5530:	fc 91       	ld	r31, X
    5532:	11 97       	sbiw	r26, 0x01	; 1
    5534:	22 89       	ldd	r18, Z+18	; 0x12
    5536:	c2 2f       	mov	r28, r18
    5538:	dd 27       	eor	r29, r29
    553a:	c7 fd       	sbrc	r28, 7
    553c:	d0 95       	com	r29
    553e:	d7 fd       	sbrc	r29, 7
    5540:	23 c0       	rjmp	.+70     	; 0x5588 <vibrato+0x70>
    5542:	d0 e0       	ldi	r29, 0x00	; 0
    5544:	c2 56       	subi	r28, 0x62	; 98
    5546:	de 4f       	sbci	r29, 0xFE	; 254
    5548:	88 81       	ld	r24, Y
    554a:	90 89       	ldd	r25, Z+16	; 0x10
    554c:	98 9f       	mul	r25, r24
    554e:	c0 01       	movw	r24, r0
    5550:	11 24       	eor	r1, r1
    5552:	88 0f       	add	r24, r24
    5554:	89 2f       	mov	r24, r25
    5556:	88 1f       	adc	r24, r24
    5558:	99 0b       	sbc	r25, r25
    555a:	91 95       	neg	r25
    555c:	94 8b       	std	Z+20, r25	; 0x14
    555e:	83 8b       	std	Z+19, r24	; 0x13
    5560:	27 ff       	sbrs	r18, 7
    5562:	05 c0       	rjmp	.+10     	; 0x556e <vibrato+0x56>
    5564:	90 95       	com	r25
    5566:	81 95       	neg	r24
    5568:	9f 4f       	sbci	r25, 0xFF	; 255
    556a:	94 8b       	std	Z+20, r25	; 0x14
    556c:	83 8b       	std	Z+19, r24	; 0x13
    556e:	87 85       	ldd	r24, Z+15	; 0x0f
    5570:	82 0f       	add	r24, r18
    5572:	82 8b       	std	Z+18, r24	; 0x12
    5574:	18 96       	adiw	r26, 0x08	; 8
    5576:	8c 91       	ld	r24, X
    5578:	18 97       	sbiw	r26, 0x08	; 8
    557a:	82 60       	ori	r24, 0x02	; 2
    557c:	18 96       	adiw	r26, 0x08	; 8
    557e:	8c 93       	st	X, r24
    5580:	18 97       	sbiw	r26, 0x08	; 8
    5582:	df 91       	pop	r29
    5584:	cf 91       	pop	r28
    5586:	08 95       	ret
    5588:	d0 95       	com	r29
    558a:	c1 95       	neg	r28
    558c:	df 4f       	sbci	r29, 0xFF	; 255
    558e:	d9 cf       	rjmp	.-78     	; 0x5542 <vibrato+0x2a>

00005590 <efx7_tick>:
    5590:	08 95       	ret

00005592 <efx8_tick>:
    5592:	08 95       	ret

00005594 <efx9_tick>:
    5594:	08 95       	ret

00005596 <volslide>:
    5596:	fc 01       	movw	r30, r24
    5598:	a0 81       	ld	r26, Z
    559a:	b1 81       	ldd	r27, Z+1	; 0x01
    559c:	15 96       	adiw	r26, 0x05	; 5
    559e:	8c 91       	ld	r24, X
    55a0:	15 97       	sbiw	r26, 0x05	; 5
    55a2:	98 2f       	mov	r25, r24
    55a4:	92 95       	swap	r25
    55a6:	9f 70       	andi	r25, 0x0F	; 15
    55a8:	8f 70       	andi	r24, 0x0F	; 15
    55aa:	99 23       	and	r25, r25
    55ac:	69 f4       	brne	.+26     	; 0x55c8 <volslide+0x32>
    55ae:	11 96       	adiw	r26, 0x01	; 1
    55b0:	9c 91       	ld	r25, X
    55b2:	11 97       	sbiw	r26, 0x01	; 1
    55b4:	98 1b       	sub	r25, r24
    55b6:	11 96       	adiw	r26, 0x01	; 1
    55b8:	9c 93       	st	X, r25
    55ba:	11 97       	sbiw	r26, 0x01	; 1
    55bc:	97 fd       	sbrc	r25, 7
    55be:	19 c0       	rjmp	.+50     	; 0x55f2 <volslide+0x5c>
    55c0:	80 85       	ldd	r24, Z+8	; 0x08
    55c2:	81 60       	ori	r24, 0x01	; 1
    55c4:	80 87       	std	Z+8, r24	; 0x08
    55c6:	08 95       	ret
    55c8:	88 23       	and	r24, r24
    55ca:	e9 f7       	brne	.-6      	; 0x55c6 <volslide+0x30>
    55cc:	11 96       	adiw	r26, 0x01	; 1
    55ce:	8c 91       	ld	r24, X
    55d0:	11 97       	sbiw	r26, 0x01	; 1
    55d2:	89 0f       	add	r24, r25
    55d4:	11 96       	adiw	r26, 0x01	; 1
    55d6:	8c 93       	st	X, r24
    55d8:	11 97       	sbiw	r26, 0x01	; 1
    55da:	80 34       	cpi	r24, 0x40	; 64
    55dc:	8c f3       	brlt	.-30     	; 0x55c0 <volslide+0x2a>
    55de:	a0 81       	ld	r26, Z
    55e0:	b1 81       	ldd	r27, Z+1	; 0x01
    55e2:	8f e3       	ldi	r24, 0x3F	; 63
    55e4:	11 96       	adiw	r26, 0x01	; 1
    55e6:	8c 93       	st	X, r24
    55e8:	11 97       	sbiw	r26, 0x01	; 1
    55ea:	80 85       	ldd	r24, Z+8	; 0x08
    55ec:	81 60       	ori	r24, 0x01	; 1
    55ee:	80 87       	std	Z+8, r24	; 0x08
    55f0:	ea cf       	rjmp	.-44     	; 0x55c6 <volslide+0x30>
    55f2:	a0 81       	ld	r26, Z
    55f4:	b1 81       	ldd	r27, Z+1	; 0x01
    55f6:	11 96       	adiw	r26, 0x01	; 1
    55f8:	1c 92       	st	X, r1
    55fa:	11 97       	sbiw	r26, 0x01	; 1
    55fc:	80 85       	ldd	r24, Z+8	; 0x08
    55fe:	81 60       	ori	r24, 0x01	; 1
    5600:	80 87       	std	Z+8, r24	; 0x08
    5602:	e1 cf       	rjmp	.-62     	; 0x55c6 <volslide+0x30>

00005604 <efxB_tick>:
    5604:	08 95       	ret

00005606 <efxC_tick>:
    5606:	08 95       	ret

00005608 <efxD_tick>:
    5608:	08 95       	ret

0000560a <efxF_tick>:
    560a:	08 95       	ret

0000560c <play>:
    560c:	1f 93       	push	r17
    560e:	cf 93       	push	r28
    5610:	df 93       	push	r29
    5612:	f8 94       	cli
    5614:	80 e8       	ldi	r24, 0x80	; 128
    5616:	80 93 61 00 	sts	0x0061, r24
    561a:	80 93 61 00 	sts	0x0061, r24
    561e:	0e 94 63 1d 	call	0x3ac6	; 0x3ac6 <initmodule>
    5622:	82 e0       	ldi	r24, 0x02	; 2
    5624:	84 bd       	out	0x24, r24	; 36
    5626:	85 bd       	out	0x25, r24	; 37
    5628:	94 e6       	ldi	r25, 0x64	; 100
    562a:	97 bd       	out	0x27, r25	; 39
    562c:	99 ea       	ldi	r25, 0xA9	; 169
    562e:	90 93 80 00 	sts	0x0080, r25
    5632:	90 91 80 00 	lds	r25, 0x0080
    5636:	90 93 80 00 	sts	0x0080, r25
    563a:	91 e0       	ldi	r25, 0x01	; 1
    563c:	90 93 81 00 	sts	0x0081, r25
    5640:	23 ea       	ldi	r18, 0xA3	; 163
    5642:	20 93 b0 00 	sts	0x00B0, r18
    5646:	90 93 b1 00 	sts	0x00B1, r25
    564a:	80 93 6e 00 	sts	0x006E, r24
    564e:	8a b1       	in	r24, 0x0a	; 10
    5650:	88 6f       	ori	r24, 0xF8	; 248
    5652:	8a b9       	out	0x0a, r24	; 10
    5654:	52 98       	cbi	0x0a, 2	; 10
    5656:	8f ef       	ldi	r24, 0xFF	; 255
    5658:	84 b9       	out	0x04, r24	; 4
    565a:	10 92 bb 02 	sts	0x02BB, r1
    565e:	78 94       	sei
    5660:	c0 e0       	ldi	r28, 0x00	; 0
    5662:	d3 e0       	ldi	r29, 0x03	; 3
    5664:	1c e0       	ldi	r17, 0x0C	; 12
    5666:	80 91 bb 02 	lds	r24, 0x02BB
    566a:	88 23       	and	r24, r24
    566c:	e1 f3       	breq	.-8      	; 0x5666 <play+0x5a>
    566e:	80 91 bb 02 	lds	r24, 0x02BB
    5672:	81 50       	subi	r24, 0x01	; 1
    5674:	80 93 bb 02 	sts	0x02BB, r24
    5678:	80 91 bc 02 	lds	r24, 0x02BC
    567c:	8f 5f       	subi	r24, 0xFF	; 255
    567e:	80 93 bc 02 	sts	0x02BC, r24
    5682:	90 91 84 05 	lds	r25, 0x0584
    5686:	89 17       	cp	r24, r25
    5688:	08 f4       	brcc	.+2      	; 0x568c <play+0x80>
    568a:	49 c0       	rjmp	.+146    	; 0x571e <play+0x112>
    568c:	10 92 bc 02 	sts	0x02BC, r1
    5690:	80 91 80 05 	lds	r24, 0x0580
    5694:	98 2f       	mov	r25, r24
    5696:	9f 5f       	subi	r25, 0xFF	; 255
    5698:	90 93 80 05 	sts	0x0580, r25
    569c:	80 34       	cpi	r24, 0x40	; 64
    569e:	e4 f1       	brlt	.+120    	; 0x5718 <play+0x10c>
    56a0:	e0 91 b6 02 	lds	r30, 0x02B6
    56a4:	80 91 b9 02 	lds	r24, 0x02B9
    56a8:	e0 93 cd 02 	sts	0x02CD, r30
    56ac:	90 91 c1 02 	lds	r25, 0x02C1
    56b0:	e9 17       	cp	r30, r25
    56b2:	d8 f5       	brcc	.+118    	; 0x572a <play+0x11e>
    56b4:	9e 2f       	mov	r25, r30
    56b6:	9f 5f       	subi	r25, 0xFF	; 255
    56b8:	f0 e0       	ldi	r31, 0x00	; 0
    56ba:	80 34       	cpi	r24, 0x40	; 64
    56bc:	9c f5       	brge	.+102    	; 0x5724 <play+0x118>
    56be:	48 2f       	mov	r20, r24
    56c0:	4f 5f       	subi	r20, 0xFF	; 255
    56c2:	58 2f       	mov	r21, r24
    56c4:	90 93 b6 02 	sts	0x02B6, r25
    56c8:	10 92 b9 02 	sts	0x02B9, r1
    56cc:	10 92 83 05 	sts	0x0583, r1
    56d0:	e0 5c       	subi	r30, 0xC0	; 192
    56d2:	fc 4f       	sbci	r31, 0xFC	; 252
    56d4:	20 81       	ld	r18, Z
    56d6:	90 91 c4 02 	lds	r25, 0x02C4
    56da:	29 17       	cp	r18, r25
    56dc:	d8 f4       	brcc	.+54     	; 0x5714 <play+0x108>
    56de:	20 93 85 05 	sts	0x0585, r18
    56e2:	30 e0       	ldi	r19, 0x00	; 0
    56e4:	2c 9f       	mul	r18, r28
    56e6:	c0 01       	movw	r24, r0
    56e8:	2d 9f       	mul	r18, r29
    56ea:	90 0d       	add	r25, r0
    56ec:	3c 9f       	mul	r19, r28
    56ee:	90 0d       	add	r25, r0
    56f0:	11 24       	eor	r1, r1
    56f2:	20 91 c5 02 	lds	r18, 0x02C5
    56f6:	30 91 c6 02 	lds	r19, 0x02C6
    56fa:	82 0f       	add	r24, r18
    56fc:	93 1f       	adc	r25, r19
    56fe:	90 93 87 05 	sts	0x0587, r25
    5702:	80 93 86 05 	sts	0x0586, r24
    5706:	51 9f       	mul	r21, r17
    5708:	c0 01       	movw	r24, r0
    570a:	11 24       	eor	r1, r1
    570c:	90 93 89 05 	sts	0x0589, r25
    5710:	80 93 88 05 	sts	0x0588, r24
    5714:	40 93 80 05 	sts	0x0580, r20
    5718:	0e 94 3a 20 	call	0x4074	; 0x4074 <row>
    571c:	a4 cf       	rjmp	.-184    	; 0x5666 <play+0x5a>
    571e:	0e 94 9d 25 	call	0x4b3a	; 0x4b3a <tickefx>
    5722:	a1 cf       	rjmp	.-190    	; 0x5666 <play+0x5a>
    5724:	50 e0       	ldi	r21, 0x00	; 0
    5726:	41 e0       	ldi	r20, 0x01	; 1
    5728:	cd cf       	rjmp	.-102    	; 0x56c4 <play+0xb8>
    572a:	10 92 cd 02 	sts	0x02CD, r1
    572e:	e0 e0       	ldi	r30, 0x00	; 0
    5730:	f0 e0       	ldi	r31, 0x00	; 0
    5732:	91 e0       	ldi	r25, 0x01	; 1
    5734:	c2 cf       	rjmp	.-124    	; 0x56ba <play+0xae>

00005736 <__vector_14>:
    5736:	1f 92       	push	r1
    5738:	0f 92       	push	r0
    573a:	0f b6       	in	r0, 0x3f	; 63
    573c:	0f 92       	push	r0
    573e:	11 24       	eor	r1, r1
    5740:	ef 92       	push	r14
    5742:	ff 92       	push	r15
    5744:	0f 93       	push	r16
    5746:	1f 93       	push	r17
    5748:	2f 93       	push	r18
    574a:	3f 93       	push	r19
    574c:	4f 93       	push	r20
    574e:	5f 93       	push	r21
    5750:	6f 93       	push	r22
    5752:	7f 93       	push	r23
    5754:	8f 93       	push	r24
    5756:	9f 93       	push	r25
    5758:	af 93       	push	r26
    575a:	bf 93       	push	r27
    575c:	cf 93       	push	r28
    575e:	df 93       	push	r29
    5760:	ef 93       	push	r30
    5762:	ff 93       	push	r31
    5764:	1b b8       	out	0x0b, r1	; 11
    5766:	80 91 41 01 	lds	r24, 0x0141
    576a:	90 e0       	ldi	r25, 0x00	; 0
    576c:	90 93 8b 00 	sts	0x008B, r25
    5770:	80 93 8a 00 	sts	0x008A, r24
    5774:	80 91 40 01 	lds	r24, 0x0140
    5778:	80 93 b4 00 	sts	0x00B4, r24
    577c:	80 91 bd 02 	lds	r24, 0x02BD
    5780:	81 30       	cpi	r24, 0x01	; 1
    5782:	09 f4       	brne	.+2      	; 0x5786 <__vector_14+0x50>
    5784:	6f c2       	rjmp	.+1246   	; 0x5c64 <__vector_14+0x52e>
    5786:	e0 91 8a 05 	lds	r30, 0x058A
    578a:	f0 91 8b 05 	lds	r31, 0x058B
    578e:	30 97       	sbiw	r30, 0x00	; 0
    5790:	09 f4       	brne	.+2      	; 0x5794 <__vector_14+0x5e>
    5792:	89 c0       	rjmp	.+274    	; 0x58a6 <__vector_14+0x170>
    5794:	80 91 8c 05 	lds	r24, 0x058C
    5798:	90 91 8d 05 	lds	r25, 0x058D
    579c:	a0 91 8e 05 	lds	r26, 0x058E
    57a0:	b0 91 8f 05 	lds	r27, 0x058F
    57a4:	29 2f       	mov	r18, r25
    57a6:	3a 2f       	mov	r19, r26
    57a8:	4b 2f       	mov	r20, r27
    57aa:	55 27       	eor	r21, r21
    57ac:	e2 0f       	add	r30, r18
    57ae:	f3 1f       	adc	r31, r19
    57b0:	e8 59       	subi	r30, 0x98	; 152
    57b2:	ff 4f       	sbci	r31, 0xFF	; 255
    57b4:	e4 91       	lpm	r30, Z+
    57b6:	70 91 92 05 	lds	r23, 0x0592
    57ba:	77 23       	and	r23, r23
    57bc:	09 f0       	breq	.+2      	; 0x57c0 <__vector_14+0x8a>
    57be:	50 c2       	rjmp	.+1184   	; 0x5c60 <__vector_14+0x52a>
    57c0:	60 e0       	ldi	r22, 0x00	; 0
    57c2:	20 91 90 05 	lds	r18, 0x0590
    57c6:	30 91 91 05 	lds	r19, 0x0591
    57ca:	40 e0       	ldi	r20, 0x00	; 0
    57cc:	50 e0       	ldi	r21, 0x00	; 0
    57ce:	28 0f       	add	r18, r24
    57d0:	39 1f       	adc	r19, r25
    57d2:	4a 1f       	adc	r20, r26
    57d4:	5b 1f       	adc	r21, r27
    57d6:	20 93 8c 05 	sts	0x058C, r18
    57da:	30 93 8d 05 	sts	0x058D, r19
    57de:	40 93 8e 05 	sts	0x058E, r20
    57e2:	50 93 8f 05 	sts	0x058F, r21
    57e6:	80 91 94 05 	lds	r24, 0x0594
    57ea:	90 91 95 05 	lds	r25, 0x0595
    57ee:	a0 91 96 05 	lds	r26, 0x0596
    57f2:	b0 91 97 05 	lds	r27, 0x0597
    57f6:	28 17       	cp	r18, r24
    57f8:	39 07       	cpc	r19, r25
    57fa:	4a 07       	cpc	r20, r26
    57fc:	5b 07       	cpc	r21, r27
    57fe:	c8 f0       	brcs	.+50     	; 0x5832 <__vector_14+0xfc>
    5800:	80 91 98 05 	lds	r24, 0x0598
    5804:	90 91 99 05 	lds	r25, 0x0599
    5808:	a0 91 9a 05 	lds	r26, 0x059A
    580c:	b0 91 9b 05 	lds	r27, 0x059B
    5810:	00 97       	sbiw	r24, 0x00	; 0
    5812:	a1 05       	cpc	r26, r1
    5814:	b1 05       	cpc	r27, r1
    5816:	09 f4       	brne	.+2      	; 0x581a <__vector_14+0xe4>
    5818:	44 c2       	rjmp	.+1160   	; 0x5ca2 <__vector_14+0x56c>
    581a:	28 1b       	sub	r18, r24
    581c:	39 0b       	sbc	r19, r25
    581e:	4a 0b       	sbc	r20, r26
    5820:	5b 0b       	sbc	r21, r27
    5822:	20 93 8c 05 	sts	0x058C, r18
    5826:	30 93 8d 05 	sts	0x058D, r19
    582a:	40 93 8e 05 	sts	0x058E, r20
    582e:	50 93 8f 05 	sts	0x058F, r21
    5832:	80 91 93 05 	lds	r24, 0x0593
    5836:	c8 2f       	mov	r28, r24
    5838:	d0 e0       	ldi	r29, 0x00	; 0
    583a:	ff 27       	eor	r31, r31
    583c:	e7 fd       	sbrc	r30, 7
    583e:	f0 95       	com	r31
    5840:	a7 2f       	mov	r26, r23
    5842:	b0 e0       	ldi	r27, 0x00	; 0
    5844:	4f e3       	ldi	r20, 0x3F	; 63
    5846:	50 e0       	ldi	r21, 0x00	; 0
    5848:	4c 1b       	sub	r20, r28
    584a:	5d 0b       	sbc	r21, r29
    584c:	e4 9f       	mul	r30, r20
    584e:	c0 01       	movw	r24, r0
    5850:	e5 9f       	mul	r30, r21
    5852:	90 0d       	add	r25, r0
    5854:	f4 9f       	mul	r31, r20
    5856:	90 0d       	add	r25, r0
    5858:	11 24       	eor	r1, r1
    585a:	08 2e       	mov	r0, r24
    585c:	89 2f       	mov	r24, r25
    585e:	00 0c       	add	r0, r0
    5860:	88 1f       	adc	r24, r24
    5862:	99 0b       	sbc	r25, r25
    5864:	00 0c       	add	r0, r0
    5866:	88 1f       	adc	r24, r24
    5868:	99 1f       	adc	r25, r25
    586a:	8a 9f       	mul	r24, r26
    586c:	a0 01       	movw	r20, r0
    586e:	8b 9f       	mul	r24, r27
    5870:	50 0d       	add	r21, r0
    5872:	9a 9f       	mul	r25, r26
    5874:	50 0d       	add	r21, r0
    5876:	11 24       	eor	r1, r1
    5878:	ec 9f       	mul	r30, r28
    587a:	c0 01       	movw	r24, r0
    587c:	ed 9f       	mul	r30, r29
    587e:	90 0d       	add	r25, r0
    5880:	fc 9f       	mul	r31, r28
    5882:	90 0d       	add	r25, r0
    5884:	11 24       	eor	r1, r1
    5886:	08 2e       	mov	r0, r24
    5888:	89 2f       	mov	r24, r25
    588a:	00 0c       	add	r0, r0
    588c:	88 1f       	adc	r24, r24
    588e:	99 0b       	sbc	r25, r25
    5890:	00 0c       	add	r0, r0
    5892:	88 1f       	adc	r24, r24
    5894:	99 1f       	adc	r25, r25
    5896:	8a 9f       	mul	r24, r26
    5898:	90 01       	movw	r18, r0
    589a:	8b 9f       	mul	r24, r27
    589c:	30 0d       	add	r19, r0
    589e:	9a 9f       	mul	r25, r26
    58a0:	30 0d       	add	r19, r0
    58a2:	11 24       	eor	r1, r1
    58a4:	05 c0       	rjmp	.+10     	; 0x58b0 <__vector_14+0x17a>
    58a6:	60 e0       	ldi	r22, 0x00	; 0
    58a8:	20 e0       	ldi	r18, 0x00	; 0
    58aa:	30 e0       	ldi	r19, 0x00	; 0
    58ac:	40 e0       	ldi	r20, 0x00	; 0
    58ae:	50 e0       	ldi	r21, 0x00	; 0
    58b0:	e0 91 9c 05 	lds	r30, 0x059C
    58b4:	f0 91 9d 05 	lds	r31, 0x059D
    58b8:	30 97       	sbiw	r30, 0x00	; 0
    58ba:	09 f4       	brne	.+2      	; 0x58be <__vector_14+0x188>
    58bc:	71 c0       	rjmp	.+226    	; 0x59a0 <__vector_14+0x26a>
    58be:	80 91 9e 05 	lds	r24, 0x059E
    58c2:	90 91 9f 05 	lds	r25, 0x059F
    58c6:	a0 91 a0 05 	lds	r26, 0x05A0
    58ca:	b0 91 a1 05 	lds	r27, 0x05A1
    58ce:	e9 2e       	mov	r14, r25
    58d0:	fa 2e       	mov	r15, r26
    58d2:	0b 2f       	mov	r16, r27
    58d4:	11 27       	eor	r17, r17
    58d6:	ee 0d       	add	r30, r14
    58d8:	ff 1d       	adc	r31, r15
    58da:	e8 59       	subi	r30, 0x98	; 152
    58dc:	ff 4f       	sbci	r31, 0xFF	; 255
    58de:	e4 91       	lpm	r30, Z+
    58e0:	70 91 a4 05 	lds	r23, 0x05A4
    58e4:	71 11       	cpse	r23, r1
    58e6:	60 62       	ori	r22, 0x20	; 32
    58e8:	e0 90 a2 05 	lds	r14, 0x05A2
    58ec:	f0 90 a3 05 	lds	r15, 0x05A3
    58f0:	00 e0       	ldi	r16, 0x00	; 0
    58f2:	10 e0       	ldi	r17, 0x00	; 0
    58f4:	e8 0e       	add	r14, r24
    58f6:	f9 1e       	adc	r15, r25
    58f8:	0a 1f       	adc	r16, r26
    58fa:	1b 1f       	adc	r17, r27
    58fc:	e0 92 9e 05 	sts	0x059E, r14
    5900:	f0 92 9f 05 	sts	0x059F, r15
    5904:	00 93 a0 05 	sts	0x05A0, r16
    5908:	10 93 a1 05 	sts	0x05A1, r17
    590c:	80 91 a6 05 	lds	r24, 0x05A6
    5910:	90 91 a7 05 	lds	r25, 0x05A7
    5914:	a0 91 a8 05 	lds	r26, 0x05A8
    5918:	b0 91 a9 05 	lds	r27, 0x05A9
    591c:	e8 16       	cp	r14, r24
    591e:	f9 06       	cpc	r15, r25
    5920:	0a 07       	cpc	r16, r26
    5922:	1b 07       	cpc	r17, r27
    5924:	08 f0       	brcs	.+2      	; 0x5928 <__vector_14+0x1f2>
    5926:	82 c1       	rjmp	.+772    	; 0x5c2c <__vector_14+0x4f6>
    5928:	a0 91 a5 05 	lds	r26, 0x05A5
    592c:	b0 e0       	ldi	r27, 0x00	; 0
    592e:	ff 27       	eor	r31, r31
    5930:	e7 fd       	sbrc	r30, 7
    5932:	f0 95       	com	r31
    5934:	c7 2f       	mov	r28, r23
    5936:	d0 e0       	ldi	r29, 0x00	; 0
    5938:	0f e3       	ldi	r16, 0x3F	; 63
    593a:	10 e0       	ldi	r17, 0x00	; 0
    593c:	0a 1b       	sub	r16, r26
    593e:	1b 0b       	sbc	r17, r27
    5940:	e0 9f       	mul	r30, r16
    5942:	c0 01       	movw	r24, r0
    5944:	e1 9f       	mul	r30, r17
    5946:	90 0d       	add	r25, r0
    5948:	f0 9f       	mul	r31, r16
    594a:	90 0d       	add	r25, r0
    594c:	11 24       	eor	r1, r1
    594e:	08 2e       	mov	r0, r24
    5950:	89 2f       	mov	r24, r25
    5952:	00 0c       	add	r0, r0
    5954:	88 1f       	adc	r24, r24
    5956:	99 0b       	sbc	r25, r25
    5958:	00 0c       	add	r0, r0
    595a:	88 1f       	adc	r24, r24
    595c:	99 1f       	adc	r25, r25
    595e:	8c 9f       	mul	r24, r28
    5960:	80 01       	movw	r16, r0
    5962:	8d 9f       	mul	r24, r29
    5964:	10 0d       	add	r17, r0
    5966:	9c 9f       	mul	r25, r28
    5968:	10 0d       	add	r17, r0
    596a:	11 24       	eor	r1, r1
    596c:	40 0f       	add	r20, r16
    596e:	51 1f       	adc	r21, r17
    5970:	ea 9f       	mul	r30, r26
    5972:	c0 01       	movw	r24, r0
    5974:	eb 9f       	mul	r30, r27
    5976:	90 0d       	add	r25, r0
    5978:	fa 9f       	mul	r31, r26
    597a:	90 0d       	add	r25, r0
    597c:	11 24       	eor	r1, r1
    597e:	08 2e       	mov	r0, r24
    5980:	89 2f       	mov	r24, r25
    5982:	00 0c       	add	r0, r0
    5984:	88 1f       	adc	r24, r24
    5986:	99 0b       	sbc	r25, r25
    5988:	00 0c       	add	r0, r0
    598a:	88 1f       	adc	r24, r24
    598c:	99 1f       	adc	r25, r25
    598e:	8c 9f       	mul	r24, r28
    5990:	f0 01       	movw	r30, r0
    5992:	8d 9f       	mul	r24, r29
    5994:	f0 0d       	add	r31, r0
    5996:	9c 9f       	mul	r25, r28
    5998:	f0 0d       	add	r31, r0
    599a:	11 24       	eor	r1, r1
    599c:	2e 0f       	add	r18, r30
    599e:	3f 1f       	adc	r19, r31
    59a0:	e0 91 ae 05 	lds	r30, 0x05AE
    59a4:	f0 91 af 05 	lds	r31, 0x05AF
    59a8:	30 97       	sbiw	r30, 0x00	; 0
    59aa:	09 f4       	brne	.+2      	; 0x59ae <__vector_14+0x278>
    59ac:	71 c0       	rjmp	.+226    	; 0x5a90 <__vector_14+0x35a>
    59ae:	80 91 b0 05 	lds	r24, 0x05B0
    59b2:	90 91 b1 05 	lds	r25, 0x05B1
    59b6:	a0 91 b2 05 	lds	r26, 0x05B2
    59ba:	b0 91 b3 05 	lds	r27, 0x05B3
    59be:	e9 2e       	mov	r14, r25
    59c0:	fa 2e       	mov	r15, r26
    59c2:	0b 2f       	mov	r16, r27
    59c4:	11 27       	eor	r17, r17
    59c6:	ee 0d       	add	r30, r14
    59c8:	ff 1d       	adc	r31, r15
    59ca:	e8 59       	subi	r30, 0x98	; 152
    59cc:	ff 4f       	sbci	r31, 0xFF	; 255
    59ce:	e4 91       	lpm	r30, Z+
    59d0:	70 91 b6 05 	lds	r23, 0x05B6
    59d4:	71 11       	cpse	r23, r1
    59d6:	60 64       	ori	r22, 0x40	; 64
    59d8:	e0 90 b4 05 	lds	r14, 0x05B4
    59dc:	f0 90 b5 05 	lds	r15, 0x05B5
    59e0:	00 e0       	ldi	r16, 0x00	; 0
    59e2:	10 e0       	ldi	r17, 0x00	; 0
    59e4:	e8 0e       	add	r14, r24
    59e6:	f9 1e       	adc	r15, r25
    59e8:	0a 1f       	adc	r16, r26
    59ea:	1b 1f       	adc	r17, r27
    59ec:	e0 92 b0 05 	sts	0x05B0, r14
    59f0:	f0 92 b1 05 	sts	0x05B1, r15
    59f4:	00 93 b2 05 	sts	0x05B2, r16
    59f8:	10 93 b3 05 	sts	0x05B3, r17
    59fc:	80 91 b8 05 	lds	r24, 0x05B8
    5a00:	90 91 b9 05 	lds	r25, 0x05B9
    5a04:	a0 91 ba 05 	lds	r26, 0x05BA
    5a08:	b0 91 bb 05 	lds	r27, 0x05BB
    5a0c:	e8 16       	cp	r14, r24
    5a0e:	f9 06       	cpc	r15, r25
    5a10:	0a 07       	cpc	r16, r26
    5a12:	1b 07       	cpc	r17, r27
    5a14:	08 f0       	brcs	.+2      	; 0x5a18 <__vector_14+0x2e2>
    5a16:	f0 c0       	rjmp	.+480    	; 0x5bf8 <__vector_14+0x4c2>
    5a18:	a0 91 b7 05 	lds	r26, 0x05B7
    5a1c:	b0 e0       	ldi	r27, 0x00	; 0
    5a1e:	ff 27       	eor	r31, r31
    5a20:	e7 fd       	sbrc	r30, 7
    5a22:	f0 95       	com	r31
    5a24:	c7 2f       	mov	r28, r23
    5a26:	d0 e0       	ldi	r29, 0x00	; 0
    5a28:	0f e3       	ldi	r16, 0x3F	; 63
    5a2a:	10 e0       	ldi	r17, 0x00	; 0
    5a2c:	0a 1b       	sub	r16, r26
    5a2e:	1b 0b       	sbc	r17, r27
    5a30:	e0 9f       	mul	r30, r16
    5a32:	c0 01       	movw	r24, r0
    5a34:	e1 9f       	mul	r30, r17
    5a36:	90 0d       	add	r25, r0
    5a38:	f0 9f       	mul	r31, r16
    5a3a:	90 0d       	add	r25, r0
    5a3c:	11 24       	eor	r1, r1
    5a3e:	08 2e       	mov	r0, r24
    5a40:	89 2f       	mov	r24, r25
    5a42:	00 0c       	add	r0, r0
    5a44:	88 1f       	adc	r24, r24
    5a46:	99 0b       	sbc	r25, r25
    5a48:	00 0c       	add	r0, r0
    5a4a:	88 1f       	adc	r24, r24
    5a4c:	99 1f       	adc	r25, r25
    5a4e:	8c 9f       	mul	r24, r28
    5a50:	80 01       	movw	r16, r0
    5a52:	8d 9f       	mul	r24, r29
    5a54:	10 0d       	add	r17, r0
    5a56:	9c 9f       	mul	r25, r28
    5a58:	10 0d       	add	r17, r0
    5a5a:	11 24       	eor	r1, r1
    5a5c:	40 0f       	add	r20, r16
    5a5e:	51 1f       	adc	r21, r17
    5a60:	ea 9f       	mul	r30, r26
    5a62:	c0 01       	movw	r24, r0
    5a64:	eb 9f       	mul	r30, r27
    5a66:	90 0d       	add	r25, r0
    5a68:	fa 9f       	mul	r31, r26
    5a6a:	90 0d       	add	r25, r0
    5a6c:	11 24       	eor	r1, r1
    5a6e:	08 2e       	mov	r0, r24
    5a70:	89 2f       	mov	r24, r25
    5a72:	00 0c       	add	r0, r0
    5a74:	88 1f       	adc	r24, r24
    5a76:	99 0b       	sbc	r25, r25
    5a78:	00 0c       	add	r0, r0
    5a7a:	88 1f       	adc	r24, r24
    5a7c:	99 1f       	adc	r25, r25
    5a7e:	8c 9f       	mul	r24, r28
    5a80:	f0 01       	movw	r30, r0
    5a82:	8d 9f       	mul	r24, r29
    5a84:	f0 0d       	add	r31, r0
    5a86:	9c 9f       	mul	r25, r28
    5a88:	f0 0d       	add	r31, r0
    5a8a:	11 24       	eor	r1, r1
    5a8c:	2e 0f       	add	r18, r30
    5a8e:	3f 1f       	adc	r19, r31
    5a90:	e0 91 c0 05 	lds	r30, 0x05C0
    5a94:	f0 91 c1 05 	lds	r31, 0x05C1
    5a98:	30 97       	sbiw	r30, 0x00	; 0
    5a9a:	09 f4       	brne	.+2      	; 0x5a9e <__vector_14+0x368>
    5a9c:	71 c0       	rjmp	.+226    	; 0x5b80 <__vector_14+0x44a>
    5a9e:	80 91 c2 05 	lds	r24, 0x05C2
    5aa2:	90 91 c3 05 	lds	r25, 0x05C3
    5aa6:	a0 91 c4 05 	lds	r26, 0x05C4
    5aaa:	b0 91 c5 05 	lds	r27, 0x05C5
    5aae:	e9 2e       	mov	r14, r25
    5ab0:	fa 2e       	mov	r15, r26
    5ab2:	0b 2f       	mov	r16, r27
    5ab4:	11 27       	eor	r17, r17
    5ab6:	ee 0d       	add	r30, r14
    5ab8:	ff 1d       	adc	r31, r15
    5aba:	e8 59       	subi	r30, 0x98	; 152
    5abc:	ff 4f       	sbci	r31, 0xFF	; 255
    5abe:	e4 91       	lpm	r30, Z+
    5ac0:	70 91 c8 05 	lds	r23, 0x05C8
    5ac4:	71 11       	cpse	r23, r1
    5ac6:	60 68       	ori	r22, 0x80	; 128
    5ac8:	e0 90 c6 05 	lds	r14, 0x05C6
    5acc:	f0 90 c7 05 	lds	r15, 0x05C7
    5ad0:	00 e0       	ldi	r16, 0x00	; 0
    5ad2:	10 e0       	ldi	r17, 0x00	; 0
    5ad4:	e8 0e       	add	r14, r24
    5ad6:	f9 1e       	adc	r15, r25
    5ad8:	0a 1f       	adc	r16, r26
    5ada:	1b 1f       	adc	r17, r27
    5adc:	e0 92 c2 05 	sts	0x05C2, r14
    5ae0:	f0 92 c3 05 	sts	0x05C3, r15
    5ae4:	00 93 c4 05 	sts	0x05C4, r16
    5ae8:	10 93 c5 05 	sts	0x05C5, r17
    5aec:	80 91 ca 05 	lds	r24, 0x05CA
    5af0:	90 91 cb 05 	lds	r25, 0x05CB
    5af4:	a0 91 cc 05 	lds	r26, 0x05CC
    5af8:	b0 91 cd 05 	lds	r27, 0x05CD
    5afc:	e8 16       	cp	r14, r24
    5afe:	f9 06       	cpc	r15, r25
    5b00:	0a 07       	cpc	r16, r26
    5b02:	1b 07       	cpc	r17, r27
    5b04:	08 f0       	brcs	.+2      	; 0x5b08 <__vector_14+0x3d2>
    5b06:	5e c0       	rjmp	.+188    	; 0x5bc4 <__vector_14+0x48e>
    5b08:	a0 91 c9 05 	lds	r26, 0x05C9
    5b0c:	b0 e0       	ldi	r27, 0x00	; 0
    5b0e:	ff 27       	eor	r31, r31
    5b10:	e7 fd       	sbrc	r30, 7
    5b12:	f0 95       	com	r31
    5b14:	e7 2e       	mov	r14, r23
    5b16:	ff 24       	eor	r15, r15
    5b18:	cf e3       	ldi	r28, 0x3F	; 63
    5b1a:	d0 e0       	ldi	r29, 0x00	; 0
    5b1c:	ca 1b       	sub	r28, r26
    5b1e:	db 0b       	sbc	r29, r27
    5b20:	ec 9f       	mul	r30, r28
    5b22:	c0 01       	movw	r24, r0
    5b24:	ed 9f       	mul	r30, r29
    5b26:	90 0d       	add	r25, r0
    5b28:	fc 9f       	mul	r31, r28
    5b2a:	90 0d       	add	r25, r0
    5b2c:	11 24       	eor	r1, r1
    5b2e:	08 2e       	mov	r0, r24
    5b30:	89 2f       	mov	r24, r25
    5b32:	00 0c       	add	r0, r0
    5b34:	88 1f       	adc	r24, r24
    5b36:	99 0b       	sbc	r25, r25
    5b38:	00 0c       	add	r0, r0
    5b3a:	88 1f       	adc	r24, r24
    5b3c:	99 1f       	adc	r25, r25
    5b3e:	8e 9d       	mul	r24, r14
    5b40:	e0 01       	movw	r28, r0
    5b42:	8f 9d       	mul	r24, r15
    5b44:	d0 0d       	add	r29, r0
    5b46:	9e 9d       	mul	r25, r14
    5b48:	d0 0d       	add	r29, r0
    5b4a:	11 24       	eor	r1, r1
    5b4c:	4c 0f       	add	r20, r28
    5b4e:	5d 1f       	adc	r21, r29
    5b50:	ea 9f       	mul	r30, r26
    5b52:	c0 01       	movw	r24, r0
    5b54:	eb 9f       	mul	r30, r27
    5b56:	90 0d       	add	r25, r0
    5b58:	fa 9f       	mul	r31, r26
    5b5a:	90 0d       	add	r25, r0
    5b5c:	11 24       	eor	r1, r1
    5b5e:	08 2e       	mov	r0, r24
    5b60:	89 2f       	mov	r24, r25
    5b62:	00 0c       	add	r0, r0
    5b64:	88 1f       	adc	r24, r24
    5b66:	99 0b       	sbc	r25, r25
    5b68:	00 0c       	add	r0, r0
    5b6a:	88 1f       	adc	r24, r24
    5b6c:	99 1f       	adc	r25, r25
    5b6e:	8e 9d       	mul	r24, r14
    5b70:	f0 01       	movw	r30, r0
    5b72:	8f 9d       	mul	r24, r15
    5b74:	f0 0d       	add	r31, r0
    5b76:	9e 9d       	mul	r25, r14
    5b78:	f0 0d       	add	r31, r0
    5b7a:	11 24       	eor	r1, r1
    5b7c:	2e 0f       	add	r18, r30
    5b7e:	3f 1f       	adc	r19, r31
    5b80:	85 2f       	mov	r24, r21
    5b82:	80 58       	subi	r24, 0x80	; 128
    5b84:	80 93 41 01 	sts	0x0141, r24
    5b88:	83 2f       	mov	r24, r19
    5b8a:	80 58       	subi	r24, 0x80	; 128
    5b8c:	80 93 40 01 	sts	0x0140, r24
    5b90:	8b b1       	in	r24, 0x0b	; 11
    5b92:	86 2b       	or	r24, r22
    5b94:	8b b9       	out	0x0b, r24	; 11
    5b96:	ff 91       	pop	r31
    5b98:	ef 91       	pop	r30
    5b9a:	df 91       	pop	r29
    5b9c:	cf 91       	pop	r28
    5b9e:	bf 91       	pop	r27
    5ba0:	af 91       	pop	r26
    5ba2:	9f 91       	pop	r25
    5ba4:	8f 91       	pop	r24
    5ba6:	7f 91       	pop	r23
    5ba8:	6f 91       	pop	r22
    5baa:	5f 91       	pop	r21
    5bac:	4f 91       	pop	r20
    5bae:	3f 91       	pop	r19
    5bb0:	2f 91       	pop	r18
    5bb2:	1f 91       	pop	r17
    5bb4:	0f 91       	pop	r16
    5bb6:	ff 90       	pop	r15
    5bb8:	ef 90       	pop	r14
    5bba:	0f 90       	pop	r0
    5bbc:	0f be       	out	0x3f, r0	; 63
    5bbe:	0f 90       	pop	r0
    5bc0:	1f 90       	pop	r1
    5bc2:	18 95       	reti
    5bc4:	80 91 ce 05 	lds	r24, 0x05CE
    5bc8:	90 91 cf 05 	lds	r25, 0x05CF
    5bcc:	a0 91 d0 05 	lds	r26, 0x05D0
    5bd0:	b0 91 d1 05 	lds	r27, 0x05D1
    5bd4:	00 97       	sbiw	r24, 0x00	; 0
    5bd6:	a1 05       	cpc	r26, r1
    5bd8:	b1 05       	cpc	r27, r1
    5bda:	09 f4       	brne	.+2      	; 0x5bde <__vector_14+0x4a8>
    5bdc:	a1 c0       	rjmp	.+322    	; 0x5d20 <__vector_14+0x5ea>
    5bde:	e8 1a       	sub	r14, r24
    5be0:	f9 0a       	sbc	r15, r25
    5be2:	0a 0b       	sbc	r16, r26
    5be4:	1b 0b       	sbc	r17, r27
    5be6:	e0 92 c2 05 	sts	0x05C2, r14
    5bea:	f0 92 c3 05 	sts	0x05C3, r15
    5bee:	00 93 c4 05 	sts	0x05C4, r16
    5bf2:	10 93 c5 05 	sts	0x05C5, r17
    5bf6:	88 cf       	rjmp	.-240    	; 0x5b08 <__vector_14+0x3d2>
    5bf8:	80 91 bc 05 	lds	r24, 0x05BC
    5bfc:	90 91 bd 05 	lds	r25, 0x05BD
    5c00:	a0 91 be 05 	lds	r26, 0x05BE
    5c04:	b0 91 bf 05 	lds	r27, 0x05BF
    5c08:	00 97       	sbiw	r24, 0x00	; 0
    5c0a:	a1 05       	cpc	r26, r1
    5c0c:	b1 05       	cpc	r27, r1
    5c0e:	09 f4       	brne	.+2      	; 0x5c12 <__vector_14+0x4dc>
    5c10:	72 c0       	rjmp	.+228    	; 0x5cf6 <__vector_14+0x5c0>
    5c12:	e8 1a       	sub	r14, r24
    5c14:	f9 0a       	sbc	r15, r25
    5c16:	0a 0b       	sbc	r16, r26
    5c18:	1b 0b       	sbc	r17, r27
    5c1a:	e0 92 b0 05 	sts	0x05B0, r14
    5c1e:	f0 92 b1 05 	sts	0x05B1, r15
    5c22:	00 93 b2 05 	sts	0x05B2, r16
    5c26:	10 93 b3 05 	sts	0x05B3, r17
    5c2a:	f6 ce       	rjmp	.-532    	; 0x5a18 <__vector_14+0x2e2>
    5c2c:	80 91 aa 05 	lds	r24, 0x05AA
    5c30:	90 91 ab 05 	lds	r25, 0x05AB
    5c34:	a0 91 ac 05 	lds	r26, 0x05AC
    5c38:	b0 91 ad 05 	lds	r27, 0x05AD
    5c3c:	00 97       	sbiw	r24, 0x00	; 0
    5c3e:	a1 05       	cpc	r26, r1
    5c40:	b1 05       	cpc	r27, r1
    5c42:	09 f4       	brne	.+2      	; 0x5c46 <__vector_14+0x510>
    5c44:	43 c0       	rjmp	.+134    	; 0x5ccc <__vector_14+0x596>
    5c46:	e8 1a       	sub	r14, r24
    5c48:	f9 0a       	sbc	r15, r25
    5c4a:	0a 0b       	sbc	r16, r26
    5c4c:	1b 0b       	sbc	r17, r27
    5c4e:	e0 92 9e 05 	sts	0x059E, r14
    5c52:	f0 92 9f 05 	sts	0x059F, r15
    5c56:	00 93 a0 05 	sts	0x05A0, r16
    5c5a:	10 93 a1 05 	sts	0x05A1, r17
    5c5e:	64 ce       	rjmp	.-824    	; 0x5928 <__vector_14+0x1f2>
    5c60:	60 e1       	ldi	r22, 0x10	; 16
    5c62:	af cd       	rjmp	.-1186   	; 0x57c2 <__vector_14+0x8c>
    5c64:	80 91 b7 02 	lds	r24, 0x02B7
    5c68:	90 91 b8 02 	lds	r25, 0x02B8
    5c6c:	01 96       	adiw	r24, 0x01	; 1
    5c6e:	90 93 b8 02 	sts	0x02B8, r25
    5c72:	80 93 b7 02 	sts	0x02B7, r24
    5c76:	20 91 b7 02 	lds	r18, 0x02B7
    5c7a:	30 91 b8 02 	lds	r19, 0x02B8
    5c7e:	80 91 3e 03 	lds	r24, 0x033E
    5c82:	90 91 3f 03 	lds	r25, 0x033F
    5c86:	82 17       	cp	r24, r18
    5c88:	93 07       	cpc	r25, r19
    5c8a:	08 f0       	brcs	.+2      	; 0x5c8e <__vector_14+0x558>
    5c8c:	7c cd       	rjmp	.-1288   	; 0x5786 <__vector_14+0x50>
    5c8e:	80 91 bb 02 	lds	r24, 0x02BB
    5c92:	8f 5f       	subi	r24, 0xFF	; 255
    5c94:	80 93 bb 02 	sts	0x02BB, r24
    5c98:	10 92 b8 02 	sts	0x02B8, r1
    5c9c:	10 92 b7 02 	sts	0x02B7, r1
    5ca0:	72 cd       	rjmp	.-1308   	; 0x5786 <__vector_14+0x50>
    5ca2:	10 92 8b 05 	sts	0x058B, r1
    5ca6:	10 92 8a 05 	sts	0x058A, r1
    5caa:	10 92 94 05 	sts	0x0594, r1
    5cae:	10 92 95 05 	sts	0x0595, r1
    5cb2:	10 92 96 05 	sts	0x0596, r1
    5cb6:	10 92 97 05 	sts	0x0597, r1
    5cba:	10 92 98 05 	sts	0x0598, r1
    5cbe:	10 92 99 05 	sts	0x0599, r1
    5cc2:	10 92 9a 05 	sts	0x059A, r1
    5cc6:	10 92 9b 05 	sts	0x059B, r1
    5cca:	b3 cd       	rjmp	.-1178   	; 0x5832 <__vector_14+0xfc>
    5ccc:	10 92 9d 05 	sts	0x059D, r1
    5cd0:	10 92 9c 05 	sts	0x059C, r1
    5cd4:	10 92 a6 05 	sts	0x05A6, r1
    5cd8:	10 92 a7 05 	sts	0x05A7, r1
    5cdc:	10 92 a8 05 	sts	0x05A8, r1
    5ce0:	10 92 a9 05 	sts	0x05A9, r1
    5ce4:	10 92 aa 05 	sts	0x05AA, r1
    5ce8:	10 92 ab 05 	sts	0x05AB, r1
    5cec:	10 92 ac 05 	sts	0x05AC, r1
    5cf0:	10 92 ad 05 	sts	0x05AD, r1
    5cf4:	19 ce       	rjmp	.-974    	; 0x5928 <__vector_14+0x1f2>
    5cf6:	10 92 af 05 	sts	0x05AF, r1
    5cfa:	10 92 ae 05 	sts	0x05AE, r1
    5cfe:	10 92 b8 05 	sts	0x05B8, r1
    5d02:	10 92 b9 05 	sts	0x05B9, r1
    5d06:	10 92 ba 05 	sts	0x05BA, r1
    5d0a:	10 92 bb 05 	sts	0x05BB, r1
    5d0e:	10 92 bc 05 	sts	0x05BC, r1
    5d12:	10 92 bd 05 	sts	0x05BD, r1
    5d16:	10 92 be 05 	sts	0x05BE, r1
    5d1a:	10 92 bf 05 	sts	0x05BF, r1
    5d1e:	7c ce       	rjmp	.-776    	; 0x5a18 <__vector_14+0x2e2>
    5d20:	10 92 c1 05 	sts	0x05C1, r1
    5d24:	10 92 c0 05 	sts	0x05C0, r1
    5d28:	10 92 ca 05 	sts	0x05CA, r1
    5d2c:	10 92 cb 05 	sts	0x05CB, r1
    5d30:	10 92 cc 05 	sts	0x05CC, r1
    5d34:	10 92 cd 05 	sts	0x05CD, r1
    5d38:	10 92 ce 05 	sts	0x05CE, r1
    5d3c:	10 92 cf 05 	sts	0x05CF, r1
    5d40:	10 92 d0 05 	sts	0x05D0, r1
    5d44:	10 92 d1 05 	sts	0x05D1, r1
    5d48:	df ce       	rjmp	.-578    	; 0x5b08 <__vector_14+0x3d2>

00005d4a <main>:
    5d4a:	df 93       	push	r29
    5d4c:	cf 93       	push	r28
    5d4e:	00 d0       	rcall	.+0      	; 0x5d50 <main+0x6>
    5d50:	00 d0       	rcall	.+0      	; 0x5d52 <main+0x8>
    5d52:	cd b7       	in	r28, 0x3d	; 61
    5d54:	de b7       	in	r29, 0x3e	; 62
    5d56:	de 01       	movw	r26, r28
    5d58:	11 96       	adiw	r26, 0x01	; 1
    5d5a:	80 e0       	ldi	r24, 0x00	; 0
    5d5c:	90 e0       	ldi	r25, 0x00	; 0
    5d5e:	fc 01       	movw	r30, r24
    5d60:	e8 59       	subi	r30, 0x98	; 152
    5d62:	ff 4f       	sbci	r31, 0xFF	; 255
    5d64:	e4 91       	lpm	r30, Z+
    5d66:	ed 93       	st	X+, r30
    5d68:	01 96       	adiw	r24, 0x01	; 1
    5d6a:	84 30       	cpi	r24, 0x04	; 4
    5d6c:	91 05       	cpc	r25, r1
    5d6e:	b9 f7       	brne	.-18     	; 0x5d5e <main+0x14>
    5d70:	89 81       	ldd	r24, Y+1	; 0x01
    5d72:	81 34       	cpi	r24, 0x41	; 65
    5d74:	09 f0       	breq	.+2      	; 0x5d78 <main+0x2e>
    5d76:	ff cf       	rjmp	.-2      	; 0x5d76 <main+0x2c>
    5d78:	8a 81       	ldd	r24, Y+2	; 0x02
    5d7a:	86 35       	cpi	r24, 0x56	; 86
    5d7c:	e1 f7       	brne	.-8      	; 0x5d76 <main+0x2c>
    5d7e:	8b 81       	ldd	r24, Y+3	; 0x03
    5d80:	82 35       	cpi	r24, 0x52	; 82
    5d82:	c9 f7       	brne	.-14     	; 0x5d76 <main+0x2c>
    5d84:	8c 81       	ldd	r24, Y+4	; 0x04
    5d86:	8d 34       	cpi	r24, 0x4D	; 77
    5d88:	b1 f7       	brne	.-20     	; 0x5d76 <main+0x2c>
    5d8a:	0e 94 06 2b 	call	0x560c	; 0x560c <play>
    5d8e:	f3 cf       	rjmp	.-26     	; 0x5d76 <main+0x2c>

00005d90 <__udivmodhi4>:
    5d90:	aa 1b       	sub	r26, r26
    5d92:	bb 1b       	sub	r27, r27
    5d94:	51 e1       	ldi	r21, 0x11	; 17
    5d96:	07 c0       	rjmp	.+14     	; 0x5da6 <__udivmodhi4_ep>

00005d98 <__udivmodhi4_loop>:
    5d98:	aa 1f       	adc	r26, r26
    5d9a:	bb 1f       	adc	r27, r27
    5d9c:	a6 17       	cp	r26, r22
    5d9e:	b7 07       	cpc	r27, r23
    5da0:	10 f0       	brcs	.+4      	; 0x5da6 <__udivmodhi4_ep>
    5da2:	a6 1b       	sub	r26, r22
    5da4:	b7 0b       	sbc	r27, r23

00005da6 <__udivmodhi4_ep>:
    5da6:	88 1f       	adc	r24, r24
    5da8:	99 1f       	adc	r25, r25
    5daa:	5a 95       	dec	r21
    5dac:	a9 f7       	brne	.-22     	; 0x5d98 <__udivmodhi4_loop>
    5dae:	80 95       	com	r24
    5db0:	90 95       	com	r25
    5db2:	bc 01       	movw	r22, r24
    5db4:	cd 01       	movw	r24, r26
    5db6:	08 95       	ret

00005db8 <__udivmodsi4>:
    5db8:	a1 e2       	ldi	r26, 0x21	; 33
    5dba:	1a 2e       	mov	r1, r26
    5dbc:	aa 1b       	sub	r26, r26
    5dbe:	bb 1b       	sub	r27, r27
    5dc0:	fd 01       	movw	r30, r26
    5dc2:	0d c0       	rjmp	.+26     	; 0x5dde <__udivmodsi4_ep>

00005dc4 <__udivmodsi4_loop>:
    5dc4:	aa 1f       	adc	r26, r26
    5dc6:	bb 1f       	adc	r27, r27
    5dc8:	ee 1f       	adc	r30, r30
    5dca:	ff 1f       	adc	r31, r31
    5dcc:	a2 17       	cp	r26, r18
    5dce:	b3 07       	cpc	r27, r19
    5dd0:	e4 07       	cpc	r30, r20
    5dd2:	f5 07       	cpc	r31, r21
    5dd4:	20 f0       	brcs	.+8      	; 0x5dde <__udivmodsi4_ep>
    5dd6:	a2 1b       	sub	r26, r18
    5dd8:	b3 0b       	sbc	r27, r19
    5dda:	e4 0b       	sbc	r30, r20
    5ddc:	f5 0b       	sbc	r31, r21

00005dde <__udivmodsi4_ep>:
    5dde:	66 1f       	adc	r22, r22
    5de0:	77 1f       	adc	r23, r23
    5de2:	88 1f       	adc	r24, r24
    5de4:	99 1f       	adc	r25, r25
    5de6:	1a 94       	dec	r1
    5de8:	69 f7       	brne	.-38     	; 0x5dc4 <__udivmodsi4_loop>
    5dea:	60 95       	com	r22
    5dec:	70 95       	com	r23
    5dee:	80 95       	com	r24
    5df0:	90 95       	com	r25
    5df2:	9b 01       	movw	r18, r22
    5df4:	ac 01       	movw	r20, r24
    5df6:	bd 01       	movw	r22, r26
    5df8:	cf 01       	movw	r24, r30
    5dfa:	08 95       	ret

00005dfc <_exit>:
    5dfc:	f8 94       	cli

00005dfe <__stop_program>:
    5dfe:	ff cf       	rjmp	.-2      	; 0x5dfe <__stop_program>
